	.file	"blake3_portable.c"
	.text
	.section	.rodata
	.align 32
	.type	IV, @object
	.size	IV, 32
IV:
	.long	1779033703
	.long	-1150833019
	.long	1013904242
	.long	-1521486534
	.long	1359893119
	.long	-1694144372
	.long	528734635
	.long	1541459225
	.align 32
	.type	MSG_SCHEDULE, @object
	.size	MSG_SCHEDULE, 112
MSG_SCHEDULE:
	.string	""
	.ascii	"\001\002\003\004\005\006\007\b\t\n\013\f\r\016\017"
	.string	"\002\006\003\n\007"
	.ascii	"\004\r\001\013\f\005\t\016\017\b"
	.string	"\003\004\n\f\r\002\007\016\006\005\t"
	.ascii	"\013\017\b\001"
	.string	"\n\007\f\t\016\003\r\017\004"
	.ascii	"\013\002\005\b\001\006"
	.string	"\f\r\t\013\017\n\016\b\007\002\005\003"
	.ascii	"\001\006\004"
	.string	"\t\016\013\005\b\f\017\001\r\003"
	.ascii	"\n\002\006\004\007"
	.string	"\013\017\005"
	.ascii	"\001\t\b\006\016\n\002\f\003\004\007\r"
	.text
	.type	highest_one, @function
highest_one:
.LFB0:
	.cfi_startproc
	endbr64
	pushq	%rbp
	.cfi_def_cfa_offset 16
	.cfi_offset 6, -16
	movq	%rsp, %rbp
	.cfi_def_cfa_register 6
	movq	%rdi, -8(%rbp)
	bsrq	-8(%rbp), %rax
	xorq	$63, %rax
	xorl	$63, %eax
	popq	%rbp
	.cfi_def_cfa 7, 8
	ret
	.cfi_endproc
.LFE0:
	.size	highest_one, .-highest_one
	.globl	blake3_compress_in_place_portable
	.type	blake3_compress_in_place_portable, @function
blake3_compress_in_place_portable:
.LFB13:
	.cfi_startproc
	endbr64
	pushq	%rbp
	.cfi_def_cfa_offset 16
	.cfi_offset 6, -16
	movq	%rsp, %rbp
	.cfi_def_cfa_register 6
	subq	$4096, %rsp
	orq	$0, (%rsp)
	subq	$1104, %rsp
	movq	%rdi, -5176(%rbp)
	movq	%rsi, -5184(%rbp)
	movl	%edx, %eax
	movq	%rcx, -5200(%rbp)
	movl	%r8d, %edx
	movb	%al, -5188(%rbp)
	movl	%edx, %eax
	movb	%al, -5192(%rbp)
	movq	%fs:40, %rax
	movq	%rax, -8(%rbp)
	xorl	%eax, %eax
	movzbl	-5192(%rbp), %eax
	movzbl	-5188(%rbp), %edx
	leaq	-144(%rbp), %rcx
	movq	%rcx, -2912(%rbp)
	movq	-5176(%rbp), %rcx
	movq	%rcx, -2904(%rbp)
	movq	-5184(%rbp), %rcx
	movq	%rcx, -2896(%rbp)
	movb	%dl, -5154(%rbp)
	movq	-5200(%rbp), %rdx
	movq	%rdx, -2888(%rbp)
	movb	%al, -5153(%rbp)
	movq	-2896(%rbp), %rax
	movq	%rax, -2880(%rbp)
	movq	-2880(%rbp), %rax
	movq	%rax, -2872(%rbp)
	movq	-2872(%rbp), %rax
	movzbl	(%rax), %eax
	movzbl	%al, %edx
	movq	-2872(%rbp), %rax
	addq	$1, %rax
	movzbl	(%rax), %eax
	movzbl	%al, %eax
	sall	$8, %eax
	orl	%eax, %edx
	movq	-2872(%rbp), %rax
	addq	$2, %rax
	movzbl	(%rax), %eax
	movzbl	%al, %eax
	sall	$16, %eax
	orl	%eax, %edx
	movq	-2872(%rbp), %rax
	addq	$3, %rax
	movzbl	(%rax), %eax
	movzbl	%al, %eax
	sall	$24, %eax
	orl	%edx, %eax
	movl	%eax, -80(%rbp)
	movq	-2896(%rbp), %rax
	addq	$4, %rax
	movq	%rax, -2864(%rbp)
	movq	-2864(%rbp), %rax
	movq	%rax, -2856(%rbp)
	movq	-2856(%rbp), %rax
	movzbl	(%rax), %eax
	movzbl	%al, %edx
	movq	-2856(%rbp), %rax
	addq	$1, %rax
	movzbl	(%rax), %eax
	movzbl	%al, %eax
	sall	$8, %eax
	orl	%eax, %edx
	movq	-2856(%rbp), %rax
	addq	$2, %rax
	movzbl	(%rax), %eax
	movzbl	%al, %eax
	sall	$16, %eax
	orl	%eax, %edx
	movq	-2856(%rbp), %rax
	addq	$3, %rax
	movzbl	(%rax), %eax
	movzbl	%al, %eax
	sall	$24, %eax
	orl	%edx, %eax
	movl	%eax, -76(%rbp)
	movq	-2896(%rbp), %rax
	addq	$8, %rax
	movq	%rax, -2848(%rbp)
	movq	-2848(%rbp), %rax
	movq	%rax, -2840(%rbp)
	movq	-2840(%rbp), %rax
	movzbl	(%rax), %eax
	movzbl	%al, %edx
	movq	-2840(%rbp), %rax
	addq	$1, %rax
	movzbl	(%rax), %eax
	movzbl	%al, %eax
	sall	$8, %eax
	orl	%eax, %edx
	movq	-2840(%rbp), %rax
	addq	$2, %rax
	movzbl	(%rax), %eax
	movzbl	%al, %eax
	sall	$16, %eax
	orl	%eax, %edx
	movq	-2840(%rbp), %rax
	addq	$3, %rax
	movzbl	(%rax), %eax
	movzbl	%al, %eax
	sall	$24, %eax
	orl	%edx, %eax
	movl	%eax, -72(%rbp)
	movq	-2896(%rbp), %rax
	addq	$12, %rax
	movq	%rax, -2832(%rbp)
	movq	-2832(%rbp), %rax
	movq	%rax, -2824(%rbp)
	movq	-2824(%rbp), %rax
	movzbl	(%rax), %eax
	movzbl	%al, %edx
	movq	-2824(%rbp), %rax
	addq	$1, %rax
	movzbl	(%rax), %eax
	movzbl	%al, %eax
	sall	$8, %eax
	orl	%eax, %edx
	movq	-2824(%rbp), %rax
	addq	$2, %rax
	movzbl	(%rax), %eax
	movzbl	%al, %eax
	sall	$16, %eax
	orl	%eax, %edx
	movq	-2824(%rbp), %rax
	addq	$3, %rax
	movzbl	(%rax), %eax
	movzbl	%al, %eax
	sall	$24, %eax
	orl	%edx, %eax
	movl	%eax, -68(%rbp)
	movq	-2896(%rbp), %rax
	addq	$16, %rax
	movq	%rax, -2816(%rbp)
	movq	-2816(%rbp), %rax
	movq	%rax, -2808(%rbp)
	movq	-2808(%rbp), %rax
	movzbl	(%rax), %eax
	movzbl	%al, %edx
	movq	-2808(%rbp), %rax
	addq	$1, %rax
	movzbl	(%rax), %eax
	movzbl	%al, %eax
	sall	$8, %eax
	orl	%eax, %edx
	movq	-2808(%rbp), %rax
	addq	$2, %rax
	movzbl	(%rax), %eax
	movzbl	%al, %eax
	sall	$16, %eax
	orl	%eax, %edx
	movq	-2808(%rbp), %rax
	addq	$3, %rax
	movzbl	(%rax), %eax
	movzbl	%al, %eax
	sall	$24, %eax
	orl	%edx, %eax
	movl	%eax, -64(%rbp)
	movq	-2896(%rbp), %rax
	addq	$20, %rax
	movq	%rax, -2800(%rbp)
	movq	-2800(%rbp), %rax
	movq	%rax, -2792(%rbp)
	movq	-2792(%rbp), %rax
	movzbl	(%rax), %eax
	movzbl	%al, %edx
	movq	-2792(%rbp), %rax
	addq	$1, %rax
	movzbl	(%rax), %eax
	movzbl	%al, %eax
	sall	$8, %eax
	orl	%eax, %edx
	movq	-2792(%rbp), %rax
	addq	$2, %rax
	movzbl	(%rax), %eax
	movzbl	%al, %eax
	sall	$16, %eax
	orl	%eax, %edx
	movq	-2792(%rbp), %rax
	addq	$3, %rax
	movzbl	(%rax), %eax
	movzbl	%al, %eax
	sall	$24, %eax
	orl	%edx, %eax
	movl	%eax, -60(%rbp)
	movq	-2896(%rbp), %rax
	addq	$24, %rax
	movq	%rax, -2784(%rbp)
	movq	-2784(%rbp), %rax
	movq	%rax, -2776(%rbp)
	movq	-2776(%rbp), %rax
	movzbl	(%rax), %eax
	movzbl	%al, %edx
	movq	-2776(%rbp), %rax
	addq	$1, %rax
	movzbl	(%rax), %eax
	movzbl	%al, %eax
	sall	$8, %eax
	orl	%eax, %edx
	movq	-2776(%rbp), %rax
	addq	$2, %rax
	movzbl	(%rax), %eax
	movzbl	%al, %eax
	sall	$16, %eax
	orl	%eax, %edx
	movq	-2776(%rbp), %rax
	addq	$3, %rax
	movzbl	(%rax), %eax
	movzbl	%al, %eax
	sall	$24, %eax
	orl	%edx, %eax
	movl	%eax, -56(%rbp)
	movq	-2896(%rbp), %rax
	addq	$28, %rax
	movq	%rax, -2768(%rbp)
	movq	-2768(%rbp), %rax
	movq	%rax, -2760(%rbp)
	movq	-2760(%rbp), %rax
	movzbl	(%rax), %eax
	movzbl	%al, %edx
	movq	-2760(%rbp), %rax
	addq	$1, %rax
	movzbl	(%rax), %eax
	movzbl	%al, %eax
	sall	$8, %eax
	orl	%eax, %edx
	movq	-2760(%rbp), %rax
	addq	$2, %rax
	movzbl	(%rax), %eax
	movzbl	%al, %eax
	sall	$16, %eax
	orl	%eax, %edx
	movq	-2760(%rbp), %rax
	addq	$3, %rax
	movzbl	(%rax), %eax
	movzbl	%al, %eax
	sall	$24, %eax
	orl	%edx, %eax
	movl	%eax, -52(%rbp)
	movq	-2896(%rbp), %rax
	addq	$32, %rax
	movq	%rax, -2752(%rbp)
	movq	-2752(%rbp), %rax
	movq	%rax, -2744(%rbp)
	movq	-2744(%rbp), %rax
	movzbl	(%rax), %eax
	movzbl	%al, %edx
	movq	-2744(%rbp), %rax
	addq	$1, %rax
	movzbl	(%rax), %eax
	movzbl	%al, %eax
	sall	$8, %eax
	orl	%eax, %edx
	movq	-2744(%rbp), %rax
	addq	$2, %rax
	movzbl	(%rax), %eax
	movzbl	%al, %eax
	sall	$16, %eax
	orl	%eax, %edx
	movq	-2744(%rbp), %rax
	addq	$3, %rax
	movzbl	(%rax), %eax
	movzbl	%al, %eax
	sall	$24, %eax
	orl	%edx, %eax
	movl	%eax, -48(%rbp)
	movq	-2896(%rbp), %rax
	addq	$36, %rax
	movq	%rax, -2736(%rbp)
	movq	-2736(%rbp), %rax
	movq	%rax, -2728(%rbp)
	movq	-2728(%rbp), %rax
	movzbl	(%rax), %eax
	movzbl	%al, %edx
	movq	-2728(%rbp), %rax
	addq	$1, %rax
	movzbl	(%rax), %eax
	movzbl	%al, %eax
	sall	$8, %eax
	orl	%eax, %edx
	movq	-2728(%rbp), %rax
	addq	$2, %rax
	movzbl	(%rax), %eax
	movzbl	%al, %eax
	sall	$16, %eax
	orl	%eax, %edx
	movq	-2728(%rbp), %rax
	addq	$3, %rax
	movzbl	(%rax), %eax
	movzbl	%al, %eax
	sall	$24, %eax
	orl	%edx, %eax
	movl	%eax, -44(%rbp)
	movq	-2896(%rbp), %rax
	addq	$40, %rax
	movq	%rax, -2720(%rbp)
	movq	-2720(%rbp), %rax
	movq	%rax, -2712(%rbp)
	movq	-2712(%rbp), %rax
	movzbl	(%rax), %eax
	movzbl	%al, %edx
	movq	-2712(%rbp), %rax
	addq	$1, %rax
	movzbl	(%rax), %eax
	movzbl	%al, %eax
	sall	$8, %eax
	orl	%eax, %edx
	movq	-2712(%rbp), %rax
	addq	$2, %rax
	movzbl	(%rax), %eax
	movzbl	%al, %eax
	sall	$16, %eax
	orl	%eax, %edx
	movq	-2712(%rbp), %rax
	addq	$3, %rax
	movzbl	(%rax), %eax
	movzbl	%al, %eax
	sall	$24, %eax
	orl	%edx, %eax
	movl	%eax, -40(%rbp)
	movq	-2896(%rbp), %rax
	addq	$44, %rax
	movq	%rax, -2704(%rbp)
	movq	-2704(%rbp), %rax
	movq	%rax, -2696(%rbp)
	movq	-2696(%rbp), %rax
	movzbl	(%rax), %eax
	movzbl	%al, %edx
	movq	-2696(%rbp), %rax
	addq	$1, %rax
	movzbl	(%rax), %eax
	movzbl	%al, %eax
	sall	$8, %eax
	orl	%eax, %edx
	movq	-2696(%rbp), %rax
	addq	$2, %rax
	movzbl	(%rax), %eax
	movzbl	%al, %eax
	sall	$16, %eax
	orl	%eax, %edx
	movq	-2696(%rbp), %rax
	addq	$3, %rax
	movzbl	(%rax), %eax
	movzbl	%al, %eax
	sall	$24, %eax
	orl	%edx, %eax
	movl	%eax, -36(%rbp)
	movq	-2896(%rbp), %rax
	addq	$48, %rax
	movq	%rax, -2688(%rbp)
	movq	-2688(%rbp), %rax
	movq	%rax, -2680(%rbp)
	movq	-2680(%rbp), %rax
	movzbl	(%rax), %eax
	movzbl	%al, %edx
	movq	-2680(%rbp), %rax
	addq	$1, %rax
	movzbl	(%rax), %eax
	movzbl	%al, %eax
	sall	$8, %eax
	orl	%eax, %edx
	movq	-2680(%rbp), %rax
	addq	$2, %rax
	movzbl	(%rax), %eax
	movzbl	%al, %eax
	sall	$16, %eax
	orl	%eax, %edx
	movq	-2680(%rbp), %rax
	addq	$3, %rax
	movzbl	(%rax), %eax
	movzbl	%al, %eax
	sall	$24, %eax
	orl	%edx, %eax
	movl	%eax, -32(%rbp)
	movq	-2896(%rbp), %rax
	addq	$52, %rax
	movq	%rax, -2672(%rbp)
	movq	-2672(%rbp), %rax
	movq	%rax, -2664(%rbp)
	movq	-2664(%rbp), %rax
	movzbl	(%rax), %eax
	movzbl	%al, %edx
	movq	-2664(%rbp), %rax
	addq	$1, %rax
	movzbl	(%rax), %eax
	movzbl	%al, %eax
	sall	$8, %eax
	orl	%eax, %edx
	movq	-2664(%rbp), %rax
	addq	$2, %rax
	movzbl	(%rax), %eax
	movzbl	%al, %eax
	sall	$16, %eax
	orl	%eax, %edx
	movq	-2664(%rbp), %rax
	addq	$3, %rax
	movzbl	(%rax), %eax
	movzbl	%al, %eax
	sall	$24, %eax
	orl	%edx, %eax
	movl	%eax, -28(%rbp)
	movq	-2896(%rbp), %rax
	addq	$56, %rax
	movq	%rax, -2656(%rbp)
	movq	-2656(%rbp), %rax
	movq	%rax, -2648(%rbp)
	movq	-2648(%rbp), %rax
	movzbl	(%rax), %eax
	movzbl	%al, %edx
	movq	-2648(%rbp), %rax
	addq	$1, %rax
	movzbl	(%rax), %eax
	movzbl	%al, %eax
	sall	$8, %eax
	orl	%eax, %edx
	movq	-2648(%rbp), %rax
	addq	$2, %rax
	movzbl	(%rax), %eax
	movzbl	%al, %eax
	sall	$16, %eax
	orl	%eax, %edx
	movq	-2648(%rbp), %rax
	addq	$3, %rax
	movzbl	(%rax), %eax
	movzbl	%al, %eax
	sall	$24, %eax
	orl	%edx, %eax
	movl	%eax, -24(%rbp)
	movq	-2896(%rbp), %rax
	addq	$60, %rax
	movq	%rax, -2640(%rbp)
	movq	-2640(%rbp), %rax
	movq	%rax, -2632(%rbp)
	movq	-2632(%rbp), %rax
	movzbl	(%rax), %eax
	movzbl	%al, %edx
	movq	-2632(%rbp), %rax
	addq	$1, %rax
	movzbl	(%rax), %eax
	movzbl	%al, %eax
	sall	$8, %eax
	orl	%eax, %edx
	movq	-2632(%rbp), %rax
	addq	$2, %rax
	movzbl	(%rax), %eax
	movzbl	%al, %eax
	sall	$16, %eax
	orl	%eax, %edx
	movq	-2632(%rbp), %rax
	addq	$3, %rax
	movzbl	(%rax), %eax
	movzbl	%al, %eax
	sall	$24, %eax
	orl	%edx, %eax
	movl	%eax, -20(%rbp)
	movq	-2904(%rbp), %rax
	movl	(%rax), %edx
	movq	-2912(%rbp), %rax
	movl	%edx, (%rax)
	movq	-2904(%rbp), %rax
	addq	$4, %rax
	movq	-2912(%rbp), %rdx
	addq	$4, %rdx
	movl	(%rax), %eax
	movl	%eax, (%rdx)
	movq	-2904(%rbp), %rax
	addq	$8, %rax
	movq	-2912(%rbp), %rdx
	addq	$8, %rdx
	movl	(%rax), %eax
	movl	%eax, (%rdx)
	movq	-2904(%rbp), %rax
	addq	$12, %rax
	movq	-2912(%rbp), %rdx
	addq	$12, %rdx
	movl	(%rax), %eax
	movl	%eax, (%rdx)
	movq	-2904(%rbp), %rax
	addq	$16, %rax
	movq	-2912(%rbp), %rdx
	addq	$16, %rdx
	movl	(%rax), %eax
	movl	%eax, (%rdx)
	movq	-2904(%rbp), %rax
	addq	$20, %rax
	movq	-2912(%rbp), %rdx
	addq	$20, %rdx
	movl	(%rax), %eax
	movl	%eax, (%rdx)
	movq	-2904(%rbp), %rax
	addq	$24, %rax
	movq	-2912(%rbp), %rdx
	addq	$24, %rdx
	movl	(%rax), %eax
	movl	%eax, (%rdx)
	movq	-2904(%rbp), %rax
	addq	$28, %rax
	movq	-2912(%rbp), %rdx
	addq	$28, %rdx
	movl	(%rax), %eax
	movl	%eax, (%rdx)
	movq	-2912(%rbp), %rax
	addq	$32, %rax
	movl	$1779033703, %edx
	movl	%edx, (%rax)
	movq	-2912(%rbp), %rax
	addq	$36, %rax
	movl	$-1150833019, %edx
	movl	%edx, (%rax)
	movq	-2912(%rbp), %rax
	addq	$40, %rax
	movl	$1013904242, %edx
	movl	%edx, (%rax)
	movq	-2912(%rbp), %rax
	addq	$44, %rax
	movl	$-1521486534, %edx
	movl	%edx, (%rax)
	movq	-2912(%rbp), %rax
	leaq	48(%rax), %rdx
	movq	-2888(%rbp), %rax
	movq	%rax, -2624(%rbp)
	movq	-2624(%rbp), %rax
	movl	%eax, (%rdx)
	movq	-2912(%rbp), %rax
	leaq	52(%rax), %rdx
	movq	-2888(%rbp), %rax
	movq	%rax, -2616(%rbp)
	movq	-2616(%rbp), %rax
	shrq	$32, %rax
	movl	%eax, (%rdx)
	movq	-2912(%rbp), %rax
	leaq	56(%rax), %rdx
	movzbl	-5154(%rbp), %eax
	movl	%eax, (%rdx)
	movq	-2912(%rbp), %rax
	leaq	60(%rax), %rdx
	movzbl	-5153(%rbp), %eax
	movl	%eax, (%rdx)
	movq	-2912(%rbp), %rax
	movq	%rax, -2608(%rbp)
	leaq	-80(%rbp), %rax
	movq	%rax, -2600(%rbp)
	movq	$0, -2592(%rbp)
	movq	-2592(%rbp), %rax
	salq	$4, %rax
	movq	%rax, %rdx
	leaq	MSG_SCHEDULE(%rip), %rax
	addq	%rdx, %rax
	movq	%rax, -2584(%rbp)
	movq	-2584(%rbp), %rax
	addq	$1, %rax
	movzbl	(%rax), %eax
	movzbl	%al, %eax
	leaq	0(,%rax,4), %rdx
	movq	-2600(%rbp), %rax
	addq	%rdx, %rax
	movl	(%rax), %eax
	movq	-2584(%rbp), %rdx
	movzbl	(%rdx), %edx
	movzbl	%dl, %edx
	leaq	0(,%rdx,4), %rcx
	movq	-2600(%rbp), %rdx
	addq	%rcx, %rdx
	movl	(%rdx), %edx
	movq	-2608(%rbp), %rcx
	movq	%rcx, -2576(%rbp)
	movq	$0, -2568(%rbp)
	movq	$4, -2560(%rbp)
	movq	$8, -2552(%rbp)
	movq	$12, -2544(%rbp)
	movl	%edx, -5152(%rbp)
	movl	%eax, -5148(%rbp)
	movq	-2568(%rbp), %rax
	leaq	0(,%rax,4), %rdx
	movq	-2576(%rbp), %rax
	addq	%rdx, %rax
	movl	(%rax), %edx
	movq	-2560(%rbp), %rax
	leaq	0(,%rax,4), %rcx
	movq	-2576(%rbp), %rax
	addq	%rcx, %rax
	movl	(%rax), %eax
	leal	(%rdx,%rax), %ecx
	movq	-2568(%rbp), %rax
	leaq	0(,%rax,4), %rdx
	movq	-2576(%rbp), %rax
	addq	%rdx, %rax
	movl	-5152(%rbp), %edx
	addl	%ecx, %edx
	movl	%edx, (%rax)
	movq	-2544(%rbp), %rax
	leaq	0(,%rax,4), %rdx
	movq	-2576(%rbp), %rax
	addq	%rdx, %rax
	movl	(%rax), %edx
	movq	-2568(%rbp), %rax
	leaq	0(,%rax,4), %rcx
	movq	-2576(%rbp), %rax
	addq	%rcx, %rax
	movl	(%rax), %eax
	xorl	%edx, %eax
	movq	-2544(%rbp), %rdx
	leaq	0(,%rdx,4), %rcx
	movq	-2576(%rbp), %rdx
	addq	%rcx, %rdx
	movl	%eax, -5144(%rbp)
	movl	$16, -5140(%rbp)
	movl	-5140(%rbp), %eax
	movl	-5144(%rbp), %esi
	movl	%eax, %ecx
	rorl	%cl, %esi
	movl	%esi, %eax
	movl	%eax, (%rdx)
	movq	-2552(%rbp), %rax
	leaq	0(,%rax,4), %rdx
	movq	-2576(%rbp), %rax
	addq	%rdx, %rax
	movl	(%rax), %ecx
	movq	-2544(%rbp), %rax
	leaq	0(,%rax,4), %rdx
	movq	-2576(%rbp), %rax
	addq	%rdx, %rax
	movl	(%rax), %edx
	movq	-2552(%rbp), %rax
	leaq	0(,%rax,4), %rsi
	movq	-2576(%rbp), %rax
	addq	%rsi, %rax
	addl	%ecx, %edx
	movl	%edx, (%rax)
	movq	-2560(%rbp), %rax
	leaq	0(,%rax,4), %rdx
	movq	-2576(%rbp), %rax
	addq	%rdx, %rax
	movl	(%rax), %edx
	movq	-2552(%rbp), %rax
	leaq	0(,%rax,4), %rcx
	movq	-2576(%rbp), %rax
	addq	%rcx, %rax
	movl	(%rax), %eax
	xorl	%edx, %eax
	movq	-2560(%rbp), %rdx
	leaq	0(,%rdx,4), %rcx
	movq	-2576(%rbp), %rdx
	addq	%rcx, %rdx
	movl	%eax, -5136(%rbp)
	movl	$12, -5132(%rbp)
	movl	-5132(%rbp), %eax
	movl	-5136(%rbp), %esi
	movl	%eax, %ecx
	rorl	%cl, %esi
	movl	%esi, %eax
	movl	%eax, (%rdx)
	movq	-2568(%rbp), %rax
	leaq	0(,%rax,4), %rdx
	movq	-2576(%rbp), %rax
	addq	%rdx, %rax
	movl	(%rax), %edx
	movq	-2560(%rbp), %rax
	leaq	0(,%rax,4), %rcx
	movq	-2576(%rbp), %rax
	addq	%rcx, %rax
	movl	(%rax), %eax
	leal	(%rdx,%rax), %ecx
	movq	-2568(%rbp), %rax
	leaq	0(,%rax,4), %rdx
	movq	-2576(%rbp), %rax
	addq	%rdx, %rax
	movl	-5148(%rbp), %edx
	addl	%ecx, %edx
	movl	%edx, (%rax)
	movq	-2544(%rbp), %rax
	leaq	0(,%rax,4), %rdx
	movq	-2576(%rbp), %rax
	addq	%rdx, %rax
	movl	(%rax), %edx
	movq	-2568(%rbp), %rax
	leaq	0(,%rax,4), %rcx
	movq	-2576(%rbp), %rax
	addq	%rcx, %rax
	movl	(%rax), %eax
	xorl	%edx, %eax
	movq	-2544(%rbp), %rdx
	leaq	0(,%rdx,4), %rcx
	movq	-2576(%rbp), %rdx
	addq	%rcx, %rdx
	movl	%eax, -5128(%rbp)
	movl	$8, -5124(%rbp)
	movl	-5124(%rbp), %eax
	movl	-5128(%rbp), %esi
	movl	%eax, %ecx
	rorl	%cl, %esi
	movl	%esi, %eax
	movl	%eax, (%rdx)
	movq	-2552(%rbp), %rax
	leaq	0(,%rax,4), %rdx
	movq	-2576(%rbp), %rax
	addq	%rdx, %rax
	movl	(%rax), %ecx
	movq	-2544(%rbp), %rax
	leaq	0(,%rax,4), %rdx
	movq	-2576(%rbp), %rax
	addq	%rdx, %rax
	movl	(%rax), %edx
	movq	-2552(%rbp), %rax
	leaq	0(,%rax,4), %rsi
	movq	-2576(%rbp), %rax
	addq	%rsi, %rax
	addl	%ecx, %edx
	movl	%edx, (%rax)
	movq	-2560(%rbp), %rax
	leaq	0(,%rax,4), %rdx
	movq	-2576(%rbp), %rax
	addq	%rdx, %rax
	movl	(%rax), %edx
	movq	-2552(%rbp), %rax
	leaq	0(,%rax,4), %rcx
	movq	-2576(%rbp), %rax
	addq	%rcx, %rax
	movl	(%rax), %eax
	xorl	%edx, %eax
	movq	-2560(%rbp), %rdx
	leaq	0(,%rdx,4), %rcx
	movq	-2576(%rbp), %rdx
	addq	%rcx, %rdx
	movl	%eax, -5120(%rbp)
	movl	$7, -5116(%rbp)
	movl	-5116(%rbp), %eax
	movl	-5120(%rbp), %esi
	movl	%eax, %ecx
	rorl	%cl, %esi
	movl	%esi, %eax
	movl	%eax, (%rdx)
	nop
	movq	-2584(%rbp), %rax
	addq	$3, %rax
	movzbl	(%rax), %eax
	movzbl	%al, %eax
	leaq	0(,%rax,4), %rdx
	movq	-2600(%rbp), %rax
	addq	%rdx, %rax
	movl	(%rax), %eax
	movq	-2584(%rbp), %rdx
	addq	$2, %rdx
	movzbl	(%rdx), %edx
	movzbl	%dl, %edx
	leaq	0(,%rdx,4), %rcx
	movq	-2600(%rbp), %rdx
	addq	%rcx, %rdx
	movl	(%rdx), %edx
	movq	-2608(%rbp), %rcx
	movq	%rcx, -2536(%rbp)
	movq	$1, -2528(%rbp)
	movq	$5, -2520(%rbp)
	movq	$9, -2512(%rbp)
	movq	$13, -2504(%rbp)
	movl	%edx, -5112(%rbp)
	movl	%eax, -5108(%rbp)
	movq	-2528(%rbp), %rax
	leaq	0(,%rax,4), %rdx
	movq	-2536(%rbp), %rax
	addq	%rdx, %rax
	movl	(%rax), %edx
	movq	-2520(%rbp), %rax
	leaq	0(,%rax,4), %rcx
	movq	-2536(%rbp), %rax
	addq	%rcx, %rax
	movl	(%rax), %eax
	leal	(%rdx,%rax), %ecx
	movq	-2528(%rbp), %rax
	leaq	0(,%rax,4), %rdx
	movq	-2536(%rbp), %rax
	addq	%rdx, %rax
	movl	-5112(%rbp), %edx
	addl	%ecx, %edx
	movl	%edx, (%rax)
	movq	-2504(%rbp), %rax
	leaq	0(,%rax,4), %rdx
	movq	-2536(%rbp), %rax
	addq	%rdx, %rax
	movl	(%rax), %edx
	movq	-2528(%rbp), %rax
	leaq	0(,%rax,4), %rcx
	movq	-2536(%rbp), %rax
	addq	%rcx, %rax
	movl	(%rax), %eax
	xorl	%edx, %eax
	movq	-2504(%rbp), %rdx
	leaq	0(,%rdx,4), %rcx
	movq	-2536(%rbp), %rdx
	addq	%rcx, %rdx
	movl	%eax, -5104(%rbp)
	movl	$16, -5100(%rbp)
	movl	-5100(%rbp), %eax
	movl	-5104(%rbp), %esi
	movl	%eax, %ecx
	rorl	%cl, %esi
	movl	%esi, %eax
	movl	%eax, (%rdx)
	movq	-2512(%rbp), %rax
	leaq	0(,%rax,4), %rdx
	movq	-2536(%rbp), %rax
	addq	%rdx, %rax
	movl	(%rax), %ecx
	movq	-2504(%rbp), %rax
	leaq	0(,%rax,4), %rdx
	movq	-2536(%rbp), %rax
	addq	%rdx, %rax
	movl	(%rax), %edx
	movq	-2512(%rbp), %rax
	leaq	0(,%rax,4), %rsi
	movq	-2536(%rbp), %rax
	addq	%rsi, %rax
	addl	%ecx, %edx
	movl	%edx, (%rax)
	movq	-2520(%rbp), %rax
	leaq	0(,%rax,4), %rdx
	movq	-2536(%rbp), %rax
	addq	%rdx, %rax
	movl	(%rax), %edx
	movq	-2512(%rbp), %rax
	leaq	0(,%rax,4), %rcx
	movq	-2536(%rbp), %rax
	addq	%rcx, %rax
	movl	(%rax), %eax
	xorl	%edx, %eax
	movq	-2520(%rbp), %rdx
	leaq	0(,%rdx,4), %rcx
	movq	-2536(%rbp), %rdx
	addq	%rcx, %rdx
	movl	%eax, -5096(%rbp)
	movl	$12, -5092(%rbp)
	movl	-5092(%rbp), %eax
	movl	-5096(%rbp), %esi
	movl	%eax, %ecx
	rorl	%cl, %esi
	movl	%esi, %eax
	movl	%eax, (%rdx)
	movq	-2528(%rbp), %rax
	leaq	0(,%rax,4), %rdx
	movq	-2536(%rbp), %rax
	addq	%rdx, %rax
	movl	(%rax), %edx
	movq	-2520(%rbp), %rax
	leaq	0(,%rax,4), %rcx
	movq	-2536(%rbp), %rax
	addq	%rcx, %rax
	movl	(%rax), %eax
	leal	(%rdx,%rax), %ecx
	movq	-2528(%rbp), %rax
	leaq	0(,%rax,4), %rdx
	movq	-2536(%rbp), %rax
	addq	%rdx, %rax
	movl	-5108(%rbp), %edx
	addl	%ecx, %edx
	movl	%edx, (%rax)
	movq	-2504(%rbp), %rax
	leaq	0(,%rax,4), %rdx
	movq	-2536(%rbp), %rax
	addq	%rdx, %rax
	movl	(%rax), %edx
	movq	-2528(%rbp), %rax
	leaq	0(,%rax,4), %rcx
	movq	-2536(%rbp), %rax
	addq	%rcx, %rax
	movl	(%rax), %eax
	xorl	%edx, %eax
	movq	-2504(%rbp), %rdx
	leaq	0(,%rdx,4), %rcx
	movq	-2536(%rbp), %rdx
	addq	%rcx, %rdx
	movl	%eax, -5088(%rbp)
	movl	$8, -5084(%rbp)
	movl	-5084(%rbp), %eax
	movl	-5088(%rbp), %esi
	movl	%eax, %ecx
	rorl	%cl, %esi
	movl	%esi, %eax
	movl	%eax, (%rdx)
	movq	-2512(%rbp), %rax
	leaq	0(,%rax,4), %rdx
	movq	-2536(%rbp), %rax
	addq	%rdx, %rax
	movl	(%rax), %ecx
	movq	-2504(%rbp), %rax
	leaq	0(,%rax,4), %rdx
	movq	-2536(%rbp), %rax
	addq	%rdx, %rax
	movl	(%rax), %edx
	movq	-2512(%rbp), %rax
	leaq	0(,%rax,4), %rsi
	movq	-2536(%rbp), %rax
	addq	%rsi, %rax
	addl	%ecx, %edx
	movl	%edx, (%rax)
	movq	-2520(%rbp), %rax
	leaq	0(,%rax,4), %rdx
	movq	-2536(%rbp), %rax
	addq	%rdx, %rax
	movl	(%rax), %edx
	movq	-2512(%rbp), %rax
	leaq	0(,%rax,4), %rcx
	movq	-2536(%rbp), %rax
	addq	%rcx, %rax
	movl	(%rax), %eax
	xorl	%edx, %eax
	movq	-2520(%rbp), %rdx
	leaq	0(,%rdx,4), %rcx
	movq	-2536(%rbp), %rdx
	addq	%rcx, %rdx
	movl	%eax, -5080(%rbp)
	movl	$7, -5076(%rbp)
	movl	-5076(%rbp), %eax
	movl	-5080(%rbp), %esi
	movl	%eax, %ecx
	rorl	%cl, %esi
	movl	%esi, %eax
	movl	%eax, (%rdx)
	nop
	movq	-2584(%rbp), %rax
	addq	$5, %rax
	movzbl	(%rax), %eax
	movzbl	%al, %eax
	leaq	0(,%rax,4), %rdx
	movq	-2600(%rbp), %rax
	addq	%rdx, %rax
	movl	(%rax), %eax
	movq	-2584(%rbp), %rdx
	addq	$4, %rdx
	movzbl	(%rdx), %edx
	movzbl	%dl, %edx
	leaq	0(,%rdx,4), %rcx
	movq	-2600(%rbp), %rdx
	addq	%rcx, %rdx
	movl	(%rdx), %edx
	movq	-2608(%rbp), %rcx
	movq	%rcx, -2496(%rbp)
	movq	$2, -2488(%rbp)
	movq	$6, -2480(%rbp)
	movq	$10, -2472(%rbp)
	movq	$14, -2464(%rbp)
	movl	%edx, -5072(%rbp)
	movl	%eax, -5068(%rbp)
	movq	-2488(%rbp), %rax
	leaq	0(,%rax,4), %rdx
	movq	-2496(%rbp), %rax
	addq	%rdx, %rax
	movl	(%rax), %edx
	movq	-2480(%rbp), %rax
	leaq	0(,%rax,4), %rcx
	movq	-2496(%rbp), %rax
	addq	%rcx, %rax
	movl	(%rax), %eax
	leal	(%rdx,%rax), %ecx
	movq	-2488(%rbp), %rax
	leaq	0(,%rax,4), %rdx
	movq	-2496(%rbp), %rax
	addq	%rdx, %rax
	movl	-5072(%rbp), %edx
	addl	%ecx, %edx
	movl	%edx, (%rax)
	movq	-2464(%rbp), %rax
	leaq	0(,%rax,4), %rdx
	movq	-2496(%rbp), %rax
	addq	%rdx, %rax
	movl	(%rax), %edx
	movq	-2488(%rbp), %rax
	leaq	0(,%rax,4), %rcx
	movq	-2496(%rbp), %rax
	addq	%rcx, %rax
	movl	(%rax), %eax
	xorl	%edx, %eax
	movq	-2464(%rbp), %rdx
	leaq	0(,%rdx,4), %rcx
	movq	-2496(%rbp), %rdx
	addq	%rcx, %rdx
	movl	%eax, -5064(%rbp)
	movl	$16, -5060(%rbp)
	movl	-5060(%rbp), %eax
	movl	-5064(%rbp), %esi
	movl	%eax, %ecx
	rorl	%cl, %esi
	movl	%esi, %eax
	movl	%eax, (%rdx)
	movq	-2472(%rbp), %rax
	leaq	0(,%rax,4), %rdx
	movq	-2496(%rbp), %rax
	addq	%rdx, %rax
	movl	(%rax), %ecx
	movq	-2464(%rbp), %rax
	leaq	0(,%rax,4), %rdx
	movq	-2496(%rbp), %rax
	addq	%rdx, %rax
	movl	(%rax), %edx
	movq	-2472(%rbp), %rax
	leaq	0(,%rax,4), %rsi
	movq	-2496(%rbp), %rax
	addq	%rsi, %rax
	addl	%ecx, %edx
	movl	%edx, (%rax)
	movq	-2480(%rbp), %rax
	leaq	0(,%rax,4), %rdx
	movq	-2496(%rbp), %rax
	addq	%rdx, %rax
	movl	(%rax), %edx
	movq	-2472(%rbp), %rax
	leaq	0(,%rax,4), %rcx
	movq	-2496(%rbp), %rax
	addq	%rcx, %rax
	movl	(%rax), %eax
	xorl	%edx, %eax
	movq	-2480(%rbp), %rdx
	leaq	0(,%rdx,4), %rcx
	movq	-2496(%rbp), %rdx
	addq	%rcx, %rdx
	movl	%eax, -5056(%rbp)
	movl	$12, -5052(%rbp)
	movl	-5052(%rbp), %eax
	movl	-5056(%rbp), %esi
	movl	%eax, %ecx
	rorl	%cl, %esi
	movl	%esi, %eax
	movl	%eax, (%rdx)
	movq	-2488(%rbp), %rax
	leaq	0(,%rax,4), %rdx
	movq	-2496(%rbp), %rax
	addq	%rdx, %rax
	movl	(%rax), %edx
	movq	-2480(%rbp), %rax
	leaq	0(,%rax,4), %rcx
	movq	-2496(%rbp), %rax
	addq	%rcx, %rax
	movl	(%rax), %eax
	leal	(%rdx,%rax), %ecx
	movq	-2488(%rbp), %rax
	leaq	0(,%rax,4), %rdx
	movq	-2496(%rbp), %rax
	addq	%rdx, %rax
	movl	-5068(%rbp), %edx
	addl	%ecx, %edx
	movl	%edx, (%rax)
	movq	-2464(%rbp), %rax
	leaq	0(,%rax,4), %rdx
	movq	-2496(%rbp), %rax
	addq	%rdx, %rax
	movl	(%rax), %edx
	movq	-2488(%rbp), %rax
	leaq	0(,%rax,4), %rcx
	movq	-2496(%rbp), %rax
	addq	%rcx, %rax
	movl	(%rax), %eax
	xorl	%edx, %eax
	movq	-2464(%rbp), %rdx
	leaq	0(,%rdx,4), %rcx
	movq	-2496(%rbp), %rdx
	addq	%rcx, %rdx
	movl	%eax, -5048(%rbp)
	movl	$8, -5044(%rbp)
	movl	-5044(%rbp), %eax
	movl	-5048(%rbp), %esi
	movl	%eax, %ecx
	rorl	%cl, %esi
	movl	%esi, %eax
	movl	%eax, (%rdx)
	movq	-2472(%rbp), %rax
	leaq	0(,%rax,4), %rdx
	movq	-2496(%rbp), %rax
	addq	%rdx, %rax
	movl	(%rax), %ecx
	movq	-2464(%rbp), %rax
	leaq	0(,%rax,4), %rdx
	movq	-2496(%rbp), %rax
	addq	%rdx, %rax
	movl	(%rax), %edx
	movq	-2472(%rbp), %rax
	leaq	0(,%rax,4), %rsi
	movq	-2496(%rbp), %rax
	addq	%rsi, %rax
	addl	%ecx, %edx
	movl	%edx, (%rax)
	movq	-2480(%rbp), %rax
	leaq	0(,%rax,4), %rdx
	movq	-2496(%rbp), %rax
	addq	%rdx, %rax
	movl	(%rax), %edx
	movq	-2472(%rbp), %rax
	leaq	0(,%rax,4), %rcx
	movq	-2496(%rbp), %rax
	addq	%rcx, %rax
	movl	(%rax), %eax
	xorl	%edx, %eax
	movq	-2480(%rbp), %rdx
	leaq	0(,%rdx,4), %rcx
	movq	-2496(%rbp), %rdx
	addq	%rcx, %rdx
	movl	%eax, -5040(%rbp)
	movl	$7, -5036(%rbp)
	movl	-5036(%rbp), %eax
	movl	-5040(%rbp), %esi
	movl	%eax, %ecx
	rorl	%cl, %esi
	movl	%esi, %eax
	movl	%eax, (%rdx)
	nop
	movq	-2584(%rbp), %rax
	addq	$7, %rax
	movzbl	(%rax), %eax
	movzbl	%al, %eax
	leaq	0(,%rax,4), %rdx
	movq	-2600(%rbp), %rax
	addq	%rdx, %rax
	movl	(%rax), %eax
	movq	-2584(%rbp), %rdx
	addq	$6, %rdx
	movzbl	(%rdx), %edx
	movzbl	%dl, %edx
	leaq	0(,%rdx,4), %rcx
	movq	-2600(%rbp), %rdx
	addq	%rcx, %rdx
	movl	(%rdx), %edx
	movq	-2608(%rbp), %rcx
	movq	%rcx, -2456(%rbp)
	movq	$3, -2448(%rbp)
	movq	$7, -2440(%rbp)
	movq	$11, -2432(%rbp)
	movq	$15, -2424(%rbp)
	movl	%edx, -5032(%rbp)
	movl	%eax, -5028(%rbp)
	movq	-2448(%rbp), %rax
	leaq	0(,%rax,4), %rdx
	movq	-2456(%rbp), %rax
	addq	%rdx, %rax
	movl	(%rax), %edx
	movq	-2440(%rbp), %rax
	leaq	0(,%rax,4), %rcx
	movq	-2456(%rbp), %rax
	addq	%rcx, %rax
	movl	(%rax), %eax
	leal	(%rdx,%rax), %ecx
	movq	-2448(%rbp), %rax
	leaq	0(,%rax,4), %rdx
	movq	-2456(%rbp), %rax
	addq	%rdx, %rax
	movl	-5032(%rbp), %edx
	addl	%ecx, %edx
	movl	%edx, (%rax)
	movq	-2424(%rbp), %rax
	leaq	0(,%rax,4), %rdx
	movq	-2456(%rbp), %rax
	addq	%rdx, %rax
	movl	(%rax), %edx
	movq	-2448(%rbp), %rax
	leaq	0(,%rax,4), %rcx
	movq	-2456(%rbp), %rax
	addq	%rcx, %rax
	movl	(%rax), %eax
	xorl	%edx, %eax
	movq	-2424(%rbp), %rdx
	leaq	0(,%rdx,4), %rcx
	movq	-2456(%rbp), %rdx
	addq	%rcx, %rdx
	movl	%eax, -5024(%rbp)
	movl	$16, -5020(%rbp)
	movl	-5020(%rbp), %eax
	movl	-5024(%rbp), %esi
	movl	%eax, %ecx
	rorl	%cl, %esi
	movl	%esi, %eax
	movl	%eax, (%rdx)
	movq	-2432(%rbp), %rax
	leaq	0(,%rax,4), %rdx
	movq	-2456(%rbp), %rax
	addq	%rdx, %rax
	movl	(%rax), %ecx
	movq	-2424(%rbp), %rax
	leaq	0(,%rax,4), %rdx
	movq	-2456(%rbp), %rax
	addq	%rdx, %rax
	movl	(%rax), %edx
	movq	-2432(%rbp), %rax
	leaq	0(,%rax,4), %rsi
	movq	-2456(%rbp), %rax
	addq	%rsi, %rax
	addl	%ecx, %edx
	movl	%edx, (%rax)
	movq	-2440(%rbp), %rax
	leaq	0(,%rax,4), %rdx
	movq	-2456(%rbp), %rax
	addq	%rdx, %rax
	movl	(%rax), %edx
	movq	-2432(%rbp), %rax
	leaq	0(,%rax,4), %rcx
	movq	-2456(%rbp), %rax
	addq	%rcx, %rax
	movl	(%rax), %eax
	xorl	%edx, %eax
	movq	-2440(%rbp), %rdx
	leaq	0(,%rdx,4), %rcx
	movq	-2456(%rbp), %rdx
	addq	%rcx, %rdx
	movl	%eax, -5016(%rbp)
	movl	$12, -5012(%rbp)
	movl	-5012(%rbp), %eax
	movl	-5016(%rbp), %esi
	movl	%eax, %ecx
	rorl	%cl, %esi
	movl	%esi, %eax
	movl	%eax, (%rdx)
	movq	-2448(%rbp), %rax
	leaq	0(,%rax,4), %rdx
	movq	-2456(%rbp), %rax
	addq	%rdx, %rax
	movl	(%rax), %edx
	movq	-2440(%rbp), %rax
	leaq	0(,%rax,4), %rcx
	movq	-2456(%rbp), %rax
	addq	%rcx, %rax
	movl	(%rax), %eax
	leal	(%rdx,%rax), %ecx
	movq	-2448(%rbp), %rax
	leaq	0(,%rax,4), %rdx
	movq	-2456(%rbp), %rax
	addq	%rdx, %rax
	movl	-5028(%rbp), %edx
	addl	%ecx, %edx
	movl	%edx, (%rax)
	movq	-2424(%rbp), %rax
	leaq	0(,%rax,4), %rdx
	movq	-2456(%rbp), %rax
	addq	%rdx, %rax
	movl	(%rax), %edx
	movq	-2448(%rbp), %rax
	leaq	0(,%rax,4), %rcx
	movq	-2456(%rbp), %rax
	addq	%rcx, %rax
	movl	(%rax), %eax
	xorl	%edx, %eax
	movq	-2424(%rbp), %rdx
	leaq	0(,%rdx,4), %rcx
	movq	-2456(%rbp), %rdx
	addq	%rcx, %rdx
	movl	%eax, -5008(%rbp)
	movl	$8, -5004(%rbp)
	movl	-5004(%rbp), %eax
	movl	-5008(%rbp), %esi
	movl	%eax, %ecx
	rorl	%cl, %esi
	movl	%esi, %eax
	movl	%eax, (%rdx)
	movq	-2432(%rbp), %rax
	leaq	0(,%rax,4), %rdx
	movq	-2456(%rbp), %rax
	addq	%rdx, %rax
	movl	(%rax), %ecx
	movq	-2424(%rbp), %rax
	leaq	0(,%rax,4), %rdx
	movq	-2456(%rbp), %rax
	addq	%rdx, %rax
	movl	(%rax), %edx
	movq	-2432(%rbp), %rax
	leaq	0(,%rax,4), %rsi
	movq	-2456(%rbp), %rax
	addq	%rsi, %rax
	addl	%ecx, %edx
	movl	%edx, (%rax)
	movq	-2440(%rbp), %rax
	leaq	0(,%rax,4), %rdx
	movq	-2456(%rbp), %rax
	addq	%rdx, %rax
	movl	(%rax), %edx
	movq	-2432(%rbp), %rax
	leaq	0(,%rax,4), %rcx
	movq	-2456(%rbp), %rax
	addq	%rcx, %rax
	movl	(%rax), %eax
	xorl	%edx, %eax
	movq	-2440(%rbp), %rdx
	leaq	0(,%rdx,4), %rcx
	movq	-2456(%rbp), %rdx
	addq	%rcx, %rdx
	movl	%eax, -5000(%rbp)
	movl	$7, -4996(%rbp)
	movl	-4996(%rbp), %eax
	movl	-5000(%rbp), %esi
	movl	%eax, %ecx
	rorl	%cl, %esi
	movl	%esi, %eax
	movl	%eax, (%rdx)
	nop
	movq	-2584(%rbp), %rax
	addq	$9, %rax
	movzbl	(%rax), %eax
	movzbl	%al, %eax
	leaq	0(,%rax,4), %rdx
	movq	-2600(%rbp), %rax
	addq	%rdx, %rax
	movl	(%rax), %eax
	movq	-2584(%rbp), %rdx
	addq	$8, %rdx
	movzbl	(%rdx), %edx
	movzbl	%dl, %edx
	leaq	0(,%rdx,4), %rcx
	movq	-2600(%rbp), %rdx
	addq	%rcx, %rdx
	movl	(%rdx), %edx
	movq	-2608(%rbp), %rcx
	movq	%rcx, -2416(%rbp)
	movq	$0, -2408(%rbp)
	movq	$5, -2400(%rbp)
	movq	$10, -2392(%rbp)
	movq	$15, -2384(%rbp)
	movl	%edx, -4992(%rbp)
	movl	%eax, -4988(%rbp)
	movq	-2408(%rbp), %rax
	leaq	0(,%rax,4), %rdx
	movq	-2416(%rbp), %rax
	addq	%rdx, %rax
	movl	(%rax), %edx
	movq	-2400(%rbp), %rax
	leaq	0(,%rax,4), %rcx
	movq	-2416(%rbp), %rax
	addq	%rcx, %rax
	movl	(%rax), %eax
	leal	(%rdx,%rax), %ecx
	movq	-2408(%rbp), %rax
	leaq	0(,%rax,4), %rdx
	movq	-2416(%rbp), %rax
	addq	%rdx, %rax
	movl	-4992(%rbp), %edx
	addl	%ecx, %edx
	movl	%edx, (%rax)
	movq	-2384(%rbp), %rax
	leaq	0(,%rax,4), %rdx
	movq	-2416(%rbp), %rax
	addq	%rdx, %rax
	movl	(%rax), %edx
	movq	-2408(%rbp), %rax
	leaq	0(,%rax,4), %rcx
	movq	-2416(%rbp), %rax
	addq	%rcx, %rax
	movl	(%rax), %eax
	xorl	%edx, %eax
	movq	-2384(%rbp), %rdx
	leaq	0(,%rdx,4), %rcx
	movq	-2416(%rbp), %rdx
	addq	%rcx, %rdx
	movl	%eax, -4984(%rbp)
	movl	$16, -4980(%rbp)
	movl	-4980(%rbp), %eax
	movl	-4984(%rbp), %esi
	movl	%eax, %ecx
	rorl	%cl, %esi
	movl	%esi, %eax
	movl	%eax, (%rdx)
	movq	-2392(%rbp), %rax
	leaq	0(,%rax,4), %rdx
	movq	-2416(%rbp), %rax
	addq	%rdx, %rax
	movl	(%rax), %ecx
	movq	-2384(%rbp), %rax
	leaq	0(,%rax,4), %rdx
	movq	-2416(%rbp), %rax
	addq	%rdx, %rax
	movl	(%rax), %edx
	movq	-2392(%rbp), %rax
	leaq	0(,%rax,4), %rsi
	movq	-2416(%rbp), %rax
	addq	%rsi, %rax
	addl	%ecx, %edx
	movl	%edx, (%rax)
	movq	-2400(%rbp), %rax
	leaq	0(,%rax,4), %rdx
	movq	-2416(%rbp), %rax
	addq	%rdx, %rax
	movl	(%rax), %edx
	movq	-2392(%rbp), %rax
	leaq	0(,%rax,4), %rcx
	movq	-2416(%rbp), %rax
	addq	%rcx, %rax
	movl	(%rax), %eax
	xorl	%edx, %eax
	movq	-2400(%rbp), %rdx
	leaq	0(,%rdx,4), %rcx
	movq	-2416(%rbp), %rdx
	addq	%rcx, %rdx
	movl	%eax, -4976(%rbp)
	movl	$12, -4972(%rbp)
	movl	-4972(%rbp), %eax
	movl	-4976(%rbp), %esi
	movl	%eax, %ecx
	rorl	%cl, %esi
	movl	%esi, %eax
	movl	%eax, (%rdx)
	movq	-2408(%rbp), %rax
	leaq	0(,%rax,4), %rdx
	movq	-2416(%rbp), %rax
	addq	%rdx, %rax
	movl	(%rax), %edx
	movq	-2400(%rbp), %rax
	leaq	0(,%rax,4), %rcx
	movq	-2416(%rbp), %rax
	addq	%rcx, %rax
	movl	(%rax), %eax
	leal	(%rdx,%rax), %ecx
	movq	-2408(%rbp), %rax
	leaq	0(,%rax,4), %rdx
	movq	-2416(%rbp), %rax
	addq	%rdx, %rax
	movl	-4988(%rbp), %edx
	addl	%ecx, %edx
	movl	%edx, (%rax)
	movq	-2384(%rbp), %rax
	leaq	0(,%rax,4), %rdx
	movq	-2416(%rbp), %rax
	addq	%rdx, %rax
	movl	(%rax), %edx
	movq	-2408(%rbp), %rax
	leaq	0(,%rax,4), %rcx
	movq	-2416(%rbp), %rax
	addq	%rcx, %rax
	movl	(%rax), %eax
	xorl	%edx, %eax
	movq	-2384(%rbp), %rdx
	leaq	0(,%rdx,4), %rcx
	movq	-2416(%rbp), %rdx
	addq	%rcx, %rdx
	movl	%eax, -4968(%rbp)
	movl	$8, -4964(%rbp)
	movl	-4964(%rbp), %eax
	movl	-4968(%rbp), %esi
	movl	%eax, %ecx
	rorl	%cl, %esi
	movl	%esi, %eax
	movl	%eax, (%rdx)
	movq	-2392(%rbp), %rax
	leaq	0(,%rax,4), %rdx
	movq	-2416(%rbp), %rax
	addq	%rdx, %rax
	movl	(%rax), %ecx
	movq	-2384(%rbp), %rax
	leaq	0(,%rax,4), %rdx
	movq	-2416(%rbp), %rax
	addq	%rdx, %rax
	movl	(%rax), %edx
	movq	-2392(%rbp), %rax
	leaq	0(,%rax,4), %rsi
	movq	-2416(%rbp), %rax
	addq	%rsi, %rax
	addl	%ecx, %edx
	movl	%edx, (%rax)
	movq	-2400(%rbp), %rax
	leaq	0(,%rax,4), %rdx
	movq	-2416(%rbp), %rax
	addq	%rdx, %rax
	movl	(%rax), %edx
	movq	-2392(%rbp), %rax
	leaq	0(,%rax,4), %rcx
	movq	-2416(%rbp), %rax
	addq	%rcx, %rax
	movl	(%rax), %eax
	xorl	%edx, %eax
	movq	-2400(%rbp), %rdx
	leaq	0(,%rdx,4), %rcx
	movq	-2416(%rbp), %rdx
	addq	%rcx, %rdx
	movl	%eax, -4960(%rbp)
	movl	$7, -4956(%rbp)
	movl	-4956(%rbp), %eax
	movl	-4960(%rbp), %esi
	movl	%eax, %ecx
	rorl	%cl, %esi
	movl	%esi, %eax
	movl	%eax, (%rdx)
	nop
	movq	-2584(%rbp), %rax
	addq	$11, %rax
	movzbl	(%rax), %eax
	movzbl	%al, %eax
	leaq	0(,%rax,4), %rdx
	movq	-2600(%rbp), %rax
	addq	%rdx, %rax
	movl	(%rax), %eax
	movq	-2584(%rbp), %rdx
	addq	$10, %rdx
	movzbl	(%rdx), %edx
	movzbl	%dl, %edx
	leaq	0(,%rdx,4), %rcx
	movq	-2600(%rbp), %rdx
	addq	%rcx, %rdx
	movl	(%rdx), %edx
	movq	-2608(%rbp), %rcx
	movq	%rcx, -2376(%rbp)
	movq	$1, -2368(%rbp)
	movq	$6, -2360(%rbp)
	movq	$11, -2352(%rbp)
	movq	$12, -2344(%rbp)
	movl	%edx, -4952(%rbp)
	movl	%eax, -4948(%rbp)
	movq	-2368(%rbp), %rax
	leaq	0(,%rax,4), %rdx
	movq	-2376(%rbp), %rax
	addq	%rdx, %rax
	movl	(%rax), %edx
	movq	-2360(%rbp), %rax
	leaq	0(,%rax,4), %rcx
	movq	-2376(%rbp), %rax
	addq	%rcx, %rax
	movl	(%rax), %eax
	leal	(%rdx,%rax), %ecx
	movq	-2368(%rbp), %rax
	leaq	0(,%rax,4), %rdx
	movq	-2376(%rbp), %rax
	addq	%rdx, %rax
	movl	-4952(%rbp), %edx
	addl	%ecx, %edx
	movl	%edx, (%rax)
	movq	-2344(%rbp), %rax
	leaq	0(,%rax,4), %rdx
	movq	-2376(%rbp), %rax
	addq	%rdx, %rax
	movl	(%rax), %edx
	movq	-2368(%rbp), %rax
	leaq	0(,%rax,4), %rcx
	movq	-2376(%rbp), %rax
	addq	%rcx, %rax
	movl	(%rax), %eax
	xorl	%edx, %eax
	movq	-2344(%rbp), %rdx
	leaq	0(,%rdx,4), %rcx
	movq	-2376(%rbp), %rdx
	addq	%rcx, %rdx
	movl	%eax, -4944(%rbp)
	movl	$16, -4940(%rbp)
	movl	-4940(%rbp), %eax
	movl	-4944(%rbp), %esi
	movl	%eax, %ecx
	rorl	%cl, %esi
	movl	%esi, %eax
	movl	%eax, (%rdx)
	movq	-2352(%rbp), %rax
	leaq	0(,%rax,4), %rdx
	movq	-2376(%rbp), %rax
	addq	%rdx, %rax
	movl	(%rax), %ecx
	movq	-2344(%rbp), %rax
	leaq	0(,%rax,4), %rdx
	movq	-2376(%rbp), %rax
	addq	%rdx, %rax
	movl	(%rax), %edx
	movq	-2352(%rbp), %rax
	leaq	0(,%rax,4), %rsi
	movq	-2376(%rbp), %rax
	addq	%rsi, %rax
	addl	%ecx, %edx
	movl	%edx, (%rax)
	movq	-2360(%rbp), %rax
	leaq	0(,%rax,4), %rdx
	movq	-2376(%rbp), %rax
	addq	%rdx, %rax
	movl	(%rax), %edx
	movq	-2352(%rbp), %rax
	leaq	0(,%rax,4), %rcx
	movq	-2376(%rbp), %rax
	addq	%rcx, %rax
	movl	(%rax), %eax
	xorl	%edx, %eax
	movq	-2360(%rbp), %rdx
	leaq	0(,%rdx,4), %rcx
	movq	-2376(%rbp), %rdx
	addq	%rcx, %rdx
	movl	%eax, -4936(%rbp)
	movl	$12, -4932(%rbp)
	movl	-4932(%rbp), %eax
	movl	-4936(%rbp), %esi
	movl	%eax, %ecx
	rorl	%cl, %esi
	movl	%esi, %eax
	movl	%eax, (%rdx)
	movq	-2368(%rbp), %rax
	leaq	0(,%rax,4), %rdx
	movq	-2376(%rbp), %rax
	addq	%rdx, %rax
	movl	(%rax), %edx
	movq	-2360(%rbp), %rax
	leaq	0(,%rax,4), %rcx
	movq	-2376(%rbp), %rax
	addq	%rcx, %rax
	movl	(%rax), %eax
	leal	(%rdx,%rax), %ecx
	movq	-2368(%rbp), %rax
	leaq	0(,%rax,4), %rdx
	movq	-2376(%rbp), %rax
	addq	%rdx, %rax
	movl	-4948(%rbp), %edx
	addl	%ecx, %edx
	movl	%edx, (%rax)
	movq	-2344(%rbp), %rax
	leaq	0(,%rax,4), %rdx
	movq	-2376(%rbp), %rax
	addq	%rdx, %rax
	movl	(%rax), %edx
	movq	-2368(%rbp), %rax
	leaq	0(,%rax,4), %rcx
	movq	-2376(%rbp), %rax
	addq	%rcx, %rax
	movl	(%rax), %eax
	xorl	%edx, %eax
	movq	-2344(%rbp), %rdx
	leaq	0(,%rdx,4), %rcx
	movq	-2376(%rbp), %rdx
	addq	%rcx, %rdx
	movl	%eax, -4928(%rbp)
	movl	$8, -4924(%rbp)
	movl	-4924(%rbp), %eax
	movl	-4928(%rbp), %esi
	movl	%eax, %ecx
	rorl	%cl, %esi
	movl	%esi, %eax
	movl	%eax, (%rdx)
	movq	-2352(%rbp), %rax
	leaq	0(,%rax,4), %rdx
	movq	-2376(%rbp), %rax
	addq	%rdx, %rax
	movl	(%rax), %ecx
	movq	-2344(%rbp), %rax
	leaq	0(,%rax,4), %rdx
	movq	-2376(%rbp), %rax
	addq	%rdx, %rax
	movl	(%rax), %edx
	movq	-2352(%rbp), %rax
	leaq	0(,%rax,4), %rsi
	movq	-2376(%rbp), %rax
	addq	%rsi, %rax
	addl	%ecx, %edx
	movl	%edx, (%rax)
	movq	-2360(%rbp), %rax
	leaq	0(,%rax,4), %rdx
	movq	-2376(%rbp), %rax
	addq	%rdx, %rax
	movl	(%rax), %edx
	movq	-2352(%rbp), %rax
	leaq	0(,%rax,4), %rcx
	movq	-2376(%rbp), %rax
	addq	%rcx, %rax
	movl	(%rax), %eax
	xorl	%edx, %eax
	movq	-2360(%rbp), %rdx
	leaq	0(,%rdx,4), %rcx
	movq	-2376(%rbp), %rdx
	addq	%rcx, %rdx
	movl	%eax, -4920(%rbp)
	movl	$7, -4916(%rbp)
	movl	-4916(%rbp), %eax
	movl	-4920(%rbp), %esi
	movl	%eax, %ecx
	rorl	%cl, %esi
	movl	%esi, %eax
	movl	%eax, (%rdx)
	nop
	movq	-2584(%rbp), %rax
	addq	$13, %rax
	movzbl	(%rax), %eax
	movzbl	%al, %eax
	leaq	0(,%rax,4), %rdx
	movq	-2600(%rbp), %rax
	addq	%rdx, %rax
	movl	(%rax), %eax
	movq	-2584(%rbp), %rdx
	addq	$12, %rdx
	movzbl	(%rdx), %edx
	movzbl	%dl, %edx
	leaq	0(,%rdx,4), %rcx
	movq	-2600(%rbp), %rdx
	addq	%rcx, %rdx
	movl	(%rdx), %edx
	movq	-2608(%rbp), %rcx
	movq	%rcx, -2336(%rbp)
	movq	$2, -2328(%rbp)
	movq	$7, -2320(%rbp)
	movq	$8, -2312(%rbp)
	movq	$13, -2304(%rbp)
	movl	%edx, -4912(%rbp)
	movl	%eax, -4908(%rbp)
	movq	-2328(%rbp), %rax
	leaq	0(,%rax,4), %rdx
	movq	-2336(%rbp), %rax
	addq	%rdx, %rax
	movl	(%rax), %edx
	movq	-2320(%rbp), %rax
	leaq	0(,%rax,4), %rcx
	movq	-2336(%rbp), %rax
	addq	%rcx, %rax
	movl	(%rax), %eax
	leal	(%rdx,%rax), %ecx
	movq	-2328(%rbp), %rax
	leaq	0(,%rax,4), %rdx
	movq	-2336(%rbp), %rax
	addq	%rdx, %rax
	movl	-4912(%rbp), %edx
	addl	%ecx, %edx
	movl	%edx, (%rax)
	movq	-2304(%rbp), %rax
	leaq	0(,%rax,4), %rdx
	movq	-2336(%rbp), %rax
	addq	%rdx, %rax
	movl	(%rax), %edx
	movq	-2328(%rbp), %rax
	leaq	0(,%rax,4), %rcx
	movq	-2336(%rbp), %rax
	addq	%rcx, %rax
	movl	(%rax), %eax
	xorl	%edx, %eax
	movq	-2304(%rbp), %rdx
	leaq	0(,%rdx,4), %rcx
	movq	-2336(%rbp), %rdx
	addq	%rcx, %rdx
	movl	%eax, -4904(%rbp)
	movl	$16, -4900(%rbp)
	movl	-4900(%rbp), %eax
	movl	-4904(%rbp), %esi
	movl	%eax, %ecx
	rorl	%cl, %esi
	movl	%esi, %eax
	movl	%eax, (%rdx)
	movq	-2312(%rbp), %rax
	leaq	0(,%rax,4), %rdx
	movq	-2336(%rbp), %rax
	addq	%rdx, %rax
	movl	(%rax), %ecx
	movq	-2304(%rbp), %rax
	leaq	0(,%rax,4), %rdx
	movq	-2336(%rbp), %rax
	addq	%rdx, %rax
	movl	(%rax), %edx
	movq	-2312(%rbp), %rax
	leaq	0(,%rax,4), %rsi
	movq	-2336(%rbp), %rax
	addq	%rsi, %rax
	addl	%ecx, %edx
	movl	%edx, (%rax)
	movq	-2320(%rbp), %rax
	leaq	0(,%rax,4), %rdx
	movq	-2336(%rbp), %rax
	addq	%rdx, %rax
	movl	(%rax), %edx
	movq	-2312(%rbp), %rax
	leaq	0(,%rax,4), %rcx
	movq	-2336(%rbp), %rax
	addq	%rcx, %rax
	movl	(%rax), %eax
	xorl	%edx, %eax
	movq	-2320(%rbp), %rdx
	leaq	0(,%rdx,4), %rcx
	movq	-2336(%rbp), %rdx
	addq	%rcx, %rdx
	movl	%eax, -4896(%rbp)
	movl	$12, -4892(%rbp)
	movl	-4892(%rbp), %eax
	movl	-4896(%rbp), %esi
	movl	%eax, %ecx
	rorl	%cl, %esi
	movl	%esi, %eax
	movl	%eax, (%rdx)
	movq	-2328(%rbp), %rax
	leaq	0(,%rax,4), %rdx
	movq	-2336(%rbp), %rax
	addq	%rdx, %rax
	movl	(%rax), %edx
	movq	-2320(%rbp), %rax
	leaq	0(,%rax,4), %rcx
	movq	-2336(%rbp), %rax
	addq	%rcx, %rax
	movl	(%rax), %eax
	leal	(%rdx,%rax), %ecx
	movq	-2328(%rbp), %rax
	leaq	0(,%rax,4), %rdx
	movq	-2336(%rbp), %rax
	addq	%rdx, %rax
	movl	-4908(%rbp), %edx
	addl	%ecx, %edx
	movl	%edx, (%rax)
	movq	-2304(%rbp), %rax
	leaq	0(,%rax,4), %rdx
	movq	-2336(%rbp), %rax
	addq	%rdx, %rax
	movl	(%rax), %edx
	movq	-2328(%rbp), %rax
	leaq	0(,%rax,4), %rcx
	movq	-2336(%rbp), %rax
	addq	%rcx, %rax
	movl	(%rax), %eax
	xorl	%edx, %eax
	movq	-2304(%rbp), %rdx
	leaq	0(,%rdx,4), %rcx
	movq	-2336(%rbp), %rdx
	addq	%rcx, %rdx
	movl	%eax, -4888(%rbp)
	movl	$8, -4884(%rbp)
	movl	-4884(%rbp), %eax
	movl	-4888(%rbp), %esi
	movl	%eax, %ecx
	rorl	%cl, %esi
	movl	%esi, %eax
	movl	%eax, (%rdx)
	movq	-2312(%rbp), %rax
	leaq	0(,%rax,4), %rdx
	movq	-2336(%rbp), %rax
	addq	%rdx, %rax
	movl	(%rax), %ecx
	movq	-2304(%rbp), %rax
	leaq	0(,%rax,4), %rdx
	movq	-2336(%rbp), %rax
	addq	%rdx, %rax
	movl	(%rax), %edx
	movq	-2312(%rbp), %rax
	leaq	0(,%rax,4), %rsi
	movq	-2336(%rbp), %rax
	addq	%rsi, %rax
	addl	%ecx, %edx
	movl	%edx, (%rax)
	movq	-2320(%rbp), %rax
	leaq	0(,%rax,4), %rdx
	movq	-2336(%rbp), %rax
	addq	%rdx, %rax
	movl	(%rax), %edx
	movq	-2312(%rbp), %rax
	leaq	0(,%rax,4), %rcx
	movq	-2336(%rbp), %rax
	addq	%rcx, %rax
	movl	(%rax), %eax
	xorl	%edx, %eax
	movq	-2320(%rbp), %rdx
	leaq	0(,%rdx,4), %rcx
	movq	-2336(%rbp), %rdx
	addq	%rcx, %rdx
	movl	%eax, -4880(%rbp)
	movl	$7, -4876(%rbp)
	movl	-4876(%rbp), %eax
	movl	-4880(%rbp), %esi
	movl	%eax, %ecx
	rorl	%cl, %esi
	movl	%esi, %eax
	movl	%eax, (%rdx)
	nop
	movq	-2584(%rbp), %rax
	addq	$15, %rax
	movzbl	(%rax), %eax
	movzbl	%al, %eax
	leaq	0(,%rax,4), %rdx
	movq	-2600(%rbp), %rax
	addq	%rdx, %rax
	movl	(%rax), %eax
	movq	-2584(%rbp), %rdx
	addq	$14, %rdx
	movzbl	(%rdx), %edx
	movzbl	%dl, %edx
	leaq	0(,%rdx,4), %rcx
	movq	-2600(%rbp), %rdx
	addq	%rcx, %rdx
	movl	(%rdx), %edx
	movq	-2608(%rbp), %rcx
	movq	%rcx, -2296(%rbp)
	movq	$3, -2288(%rbp)
	movq	$4, -2280(%rbp)
	movq	$9, -2272(%rbp)
	movq	$14, -2264(%rbp)
	movl	%edx, -4872(%rbp)
	movl	%eax, -4868(%rbp)
	movq	-2288(%rbp), %rax
	leaq	0(,%rax,4), %rdx
	movq	-2296(%rbp), %rax
	addq	%rdx, %rax
	movl	(%rax), %edx
	movq	-2280(%rbp), %rax
	leaq	0(,%rax,4), %rcx
	movq	-2296(%rbp), %rax
	addq	%rcx, %rax
	movl	(%rax), %eax
	leal	(%rdx,%rax), %ecx
	movq	-2288(%rbp), %rax
	leaq	0(,%rax,4), %rdx
	movq	-2296(%rbp), %rax
	addq	%rdx, %rax
	movl	-4872(%rbp), %edx
	addl	%ecx, %edx
	movl	%edx, (%rax)
	movq	-2264(%rbp), %rax
	leaq	0(,%rax,4), %rdx
	movq	-2296(%rbp), %rax
	addq	%rdx, %rax
	movl	(%rax), %edx
	movq	-2288(%rbp), %rax
	leaq	0(,%rax,4), %rcx
	movq	-2296(%rbp), %rax
	addq	%rcx, %rax
	movl	(%rax), %eax
	xorl	%edx, %eax
	movq	-2264(%rbp), %rdx
	leaq	0(,%rdx,4), %rcx
	movq	-2296(%rbp), %rdx
	addq	%rcx, %rdx
	movl	%eax, -4864(%rbp)
	movl	$16, -4860(%rbp)
	movl	-4860(%rbp), %eax
	movl	-4864(%rbp), %esi
	movl	%eax, %ecx
	rorl	%cl, %esi
	movl	%esi, %eax
	movl	%eax, (%rdx)
	movq	-2272(%rbp), %rax
	leaq	0(,%rax,4), %rdx
	movq	-2296(%rbp), %rax
	addq	%rdx, %rax
	movl	(%rax), %ecx
	movq	-2264(%rbp), %rax
	leaq	0(,%rax,4), %rdx
	movq	-2296(%rbp), %rax
	addq	%rdx, %rax
	movl	(%rax), %edx
	movq	-2272(%rbp), %rax
	leaq	0(,%rax,4), %rsi
	movq	-2296(%rbp), %rax
	addq	%rsi, %rax
	addl	%ecx, %edx
	movl	%edx, (%rax)
	movq	-2280(%rbp), %rax
	leaq	0(,%rax,4), %rdx
	movq	-2296(%rbp), %rax
	addq	%rdx, %rax
	movl	(%rax), %edx
	movq	-2272(%rbp), %rax
	leaq	0(,%rax,4), %rcx
	movq	-2296(%rbp), %rax
	addq	%rcx, %rax
	movl	(%rax), %eax
	xorl	%edx, %eax
	movq	-2280(%rbp), %rdx
	leaq	0(,%rdx,4), %rcx
	movq	-2296(%rbp), %rdx
	addq	%rcx, %rdx
	movl	%eax, -4856(%rbp)
	movl	$12, -4852(%rbp)
	movl	-4852(%rbp), %eax
	movl	-4856(%rbp), %esi
	movl	%eax, %ecx
	rorl	%cl, %esi
	movl	%esi, %eax
	movl	%eax, (%rdx)
	movq	-2288(%rbp), %rax
	leaq	0(,%rax,4), %rdx
	movq	-2296(%rbp), %rax
	addq	%rdx, %rax
	movl	(%rax), %edx
	movq	-2280(%rbp), %rax
	leaq	0(,%rax,4), %rcx
	movq	-2296(%rbp), %rax
	addq	%rcx, %rax
	movl	(%rax), %eax
	leal	(%rdx,%rax), %ecx
	movq	-2288(%rbp), %rax
	leaq	0(,%rax,4), %rdx
	movq	-2296(%rbp), %rax
	addq	%rdx, %rax
	movl	-4868(%rbp), %edx
	addl	%ecx, %edx
	movl	%edx, (%rax)
	movq	-2264(%rbp), %rax
	leaq	0(,%rax,4), %rdx
	movq	-2296(%rbp), %rax
	addq	%rdx, %rax
	movl	(%rax), %edx
	movq	-2288(%rbp), %rax
	leaq	0(,%rax,4), %rcx
	movq	-2296(%rbp), %rax
	addq	%rcx, %rax
	movl	(%rax), %eax
	xorl	%edx, %eax
	movq	-2264(%rbp), %rdx
	leaq	0(,%rdx,4), %rcx
	movq	-2296(%rbp), %rdx
	addq	%rcx, %rdx
	movl	%eax, -4848(%rbp)
	movl	$8, -4844(%rbp)
	movl	-4844(%rbp), %eax
	movl	-4848(%rbp), %esi
	movl	%eax, %ecx
	rorl	%cl, %esi
	movl	%esi, %eax
	movl	%eax, (%rdx)
	movq	-2272(%rbp), %rax
	leaq	0(,%rax,4), %rdx
	movq	-2296(%rbp), %rax
	addq	%rdx, %rax
	movl	(%rax), %ecx
	movq	-2264(%rbp), %rax
	leaq	0(,%rax,4), %rdx
	movq	-2296(%rbp), %rax
	addq	%rdx, %rax
	movl	(%rax), %edx
	movq	-2272(%rbp), %rax
	leaq	0(,%rax,4), %rsi
	movq	-2296(%rbp), %rax
	addq	%rsi, %rax
	addl	%ecx, %edx
	movl	%edx, (%rax)
	movq	-2280(%rbp), %rax
	leaq	0(,%rax,4), %rdx
	movq	-2296(%rbp), %rax
	addq	%rdx, %rax
	movl	(%rax), %edx
	movq	-2272(%rbp), %rax
	leaq	0(,%rax,4), %rcx
	movq	-2296(%rbp), %rax
	addq	%rcx, %rax
	movl	(%rax), %eax
	xorl	%edx, %eax
	movq	-2280(%rbp), %rdx
	leaq	0(,%rdx,4), %rcx
	movq	-2296(%rbp), %rdx
	addq	%rcx, %rdx
	movl	%eax, -4840(%rbp)
	movl	$7, -4836(%rbp)
	movl	-4836(%rbp), %eax
	movl	-4840(%rbp), %esi
	movl	%eax, %ecx
	rorl	%cl, %esi
	movl	%esi, %eax
	movl	%eax, (%rdx)
	nop
	nop
	movq	-2912(%rbp), %rax
	movq	%rax, -2256(%rbp)
	leaq	-80(%rbp), %rax
	movq	%rax, -2248(%rbp)
	movq	$1, -2240(%rbp)
	movq	-2240(%rbp), %rax
	salq	$4, %rax
	movq	%rax, %rdx
	leaq	MSG_SCHEDULE(%rip), %rax
	addq	%rdx, %rax
	movq	%rax, -2232(%rbp)
	movq	-2232(%rbp), %rax
	addq	$1, %rax
	movzbl	(%rax), %eax
	movzbl	%al, %eax
	leaq	0(,%rax,4), %rdx
	movq	-2248(%rbp), %rax
	addq	%rdx, %rax
	movl	(%rax), %eax
	movq	-2232(%rbp), %rdx
	movzbl	(%rdx), %edx
	movzbl	%dl, %edx
	leaq	0(,%rdx,4), %rcx
	movq	-2248(%rbp), %rdx
	addq	%rcx, %rdx
	movl	(%rdx), %edx
	movq	-2256(%rbp), %rcx
	movq	%rcx, -2224(%rbp)
	movq	$0, -2216(%rbp)
	movq	$4, -2208(%rbp)
	movq	$8, -2200(%rbp)
	movq	$12, -2192(%rbp)
	movl	%edx, -4832(%rbp)
	movl	%eax, -4828(%rbp)
	movq	-2216(%rbp), %rax
	leaq	0(,%rax,4), %rdx
	movq	-2224(%rbp), %rax
	addq	%rdx, %rax
	movl	(%rax), %edx
	movq	-2208(%rbp), %rax
	leaq	0(,%rax,4), %rcx
	movq	-2224(%rbp), %rax
	addq	%rcx, %rax
	movl	(%rax), %eax
	leal	(%rdx,%rax), %ecx
	movq	-2216(%rbp), %rax
	leaq	0(,%rax,4), %rdx
	movq	-2224(%rbp), %rax
	addq	%rdx, %rax
	movl	-4832(%rbp), %edx
	addl	%ecx, %edx
	movl	%edx, (%rax)
	movq	-2192(%rbp), %rax
	leaq	0(,%rax,4), %rdx
	movq	-2224(%rbp), %rax
	addq	%rdx, %rax
	movl	(%rax), %edx
	movq	-2216(%rbp), %rax
	leaq	0(,%rax,4), %rcx
	movq	-2224(%rbp), %rax
	addq	%rcx, %rax
	movl	(%rax), %eax
	xorl	%edx, %eax
	movq	-2192(%rbp), %rdx
	leaq	0(,%rdx,4), %rcx
	movq	-2224(%rbp), %rdx
	addq	%rcx, %rdx
	movl	%eax, -4824(%rbp)
	movl	$16, -4820(%rbp)
	movl	-4820(%rbp), %eax
	movl	-4824(%rbp), %esi
	movl	%eax, %ecx
	rorl	%cl, %esi
	movl	%esi, %eax
	movl	%eax, (%rdx)
	movq	-2200(%rbp), %rax
	leaq	0(,%rax,4), %rdx
	movq	-2224(%rbp), %rax
	addq	%rdx, %rax
	movl	(%rax), %ecx
	movq	-2192(%rbp), %rax
	leaq	0(,%rax,4), %rdx
	movq	-2224(%rbp), %rax
	addq	%rdx, %rax
	movl	(%rax), %edx
	movq	-2200(%rbp), %rax
	leaq	0(,%rax,4), %rsi
	movq	-2224(%rbp), %rax
	addq	%rsi, %rax
	addl	%ecx, %edx
	movl	%edx, (%rax)
	movq	-2208(%rbp), %rax
	leaq	0(,%rax,4), %rdx
	movq	-2224(%rbp), %rax
	addq	%rdx, %rax
	movl	(%rax), %edx
	movq	-2200(%rbp), %rax
	leaq	0(,%rax,4), %rcx
	movq	-2224(%rbp), %rax
	addq	%rcx, %rax
	movl	(%rax), %eax
	xorl	%edx, %eax
	movq	-2208(%rbp), %rdx
	leaq	0(,%rdx,4), %rcx
	movq	-2224(%rbp), %rdx
	addq	%rcx, %rdx
	movl	%eax, -4816(%rbp)
	movl	$12, -4812(%rbp)
	movl	-4812(%rbp), %eax
	movl	-4816(%rbp), %esi
	movl	%eax, %ecx
	rorl	%cl, %esi
	movl	%esi, %eax
	movl	%eax, (%rdx)
	movq	-2216(%rbp), %rax
	leaq	0(,%rax,4), %rdx
	movq	-2224(%rbp), %rax
	addq	%rdx, %rax
	movl	(%rax), %edx
	movq	-2208(%rbp), %rax
	leaq	0(,%rax,4), %rcx
	movq	-2224(%rbp), %rax
	addq	%rcx, %rax
	movl	(%rax), %eax
	leal	(%rdx,%rax), %ecx
	movq	-2216(%rbp), %rax
	leaq	0(,%rax,4), %rdx
	movq	-2224(%rbp), %rax
	addq	%rdx, %rax
	movl	-4828(%rbp), %edx
	addl	%ecx, %edx
	movl	%edx, (%rax)
	movq	-2192(%rbp), %rax
	leaq	0(,%rax,4), %rdx
	movq	-2224(%rbp), %rax
	addq	%rdx, %rax
	movl	(%rax), %edx
	movq	-2216(%rbp), %rax
	leaq	0(,%rax,4), %rcx
	movq	-2224(%rbp), %rax
	addq	%rcx, %rax
	movl	(%rax), %eax
	xorl	%edx, %eax
	movq	-2192(%rbp), %rdx
	leaq	0(,%rdx,4), %rcx
	movq	-2224(%rbp), %rdx
	addq	%rcx, %rdx
	movl	%eax, -4808(%rbp)
	movl	$8, -4804(%rbp)
	movl	-4804(%rbp), %eax
	movl	-4808(%rbp), %esi
	movl	%eax, %ecx
	rorl	%cl, %esi
	movl	%esi, %eax
	movl	%eax, (%rdx)
	movq	-2200(%rbp), %rax
	leaq	0(,%rax,4), %rdx
	movq	-2224(%rbp), %rax
	addq	%rdx, %rax
	movl	(%rax), %ecx
	movq	-2192(%rbp), %rax
	leaq	0(,%rax,4), %rdx
	movq	-2224(%rbp), %rax
	addq	%rdx, %rax
	movl	(%rax), %edx
	movq	-2200(%rbp), %rax
	leaq	0(,%rax,4), %rsi
	movq	-2224(%rbp), %rax
	addq	%rsi, %rax
	addl	%ecx, %edx
	movl	%edx, (%rax)
	movq	-2208(%rbp), %rax
	leaq	0(,%rax,4), %rdx
	movq	-2224(%rbp), %rax
	addq	%rdx, %rax
	movl	(%rax), %edx
	movq	-2200(%rbp), %rax
	leaq	0(,%rax,4), %rcx
	movq	-2224(%rbp), %rax
	addq	%rcx, %rax
	movl	(%rax), %eax
	xorl	%edx, %eax
	movq	-2208(%rbp), %rdx
	leaq	0(,%rdx,4), %rcx
	movq	-2224(%rbp), %rdx
	addq	%rcx, %rdx
	movl	%eax, -4800(%rbp)
	movl	$7, -4796(%rbp)
	movl	-4796(%rbp), %eax
	movl	-4800(%rbp), %esi
	movl	%eax, %ecx
	rorl	%cl, %esi
	movl	%esi, %eax
	movl	%eax, (%rdx)
	nop
	movq	-2232(%rbp), %rax
	addq	$3, %rax
	movzbl	(%rax), %eax
	movzbl	%al, %eax
	leaq	0(,%rax,4), %rdx
	movq	-2248(%rbp), %rax
	addq	%rdx, %rax
	movl	(%rax), %eax
	movq	-2232(%rbp), %rdx
	addq	$2, %rdx
	movzbl	(%rdx), %edx
	movzbl	%dl, %edx
	leaq	0(,%rdx,4), %rcx
	movq	-2248(%rbp), %rdx
	addq	%rcx, %rdx
	movl	(%rdx), %edx
	movq	-2256(%rbp), %rcx
	movq	%rcx, -2184(%rbp)
	movq	$1, -2176(%rbp)
	movq	$5, -2168(%rbp)
	movq	$9, -2160(%rbp)
	movq	$13, -2152(%rbp)
	movl	%edx, -4792(%rbp)
	movl	%eax, -4788(%rbp)
	movq	-2176(%rbp), %rax
	leaq	0(,%rax,4), %rdx
	movq	-2184(%rbp), %rax
	addq	%rdx, %rax
	movl	(%rax), %edx
	movq	-2168(%rbp), %rax
	leaq	0(,%rax,4), %rcx
	movq	-2184(%rbp), %rax
	addq	%rcx, %rax
	movl	(%rax), %eax
	leal	(%rdx,%rax), %ecx
	movq	-2176(%rbp), %rax
	leaq	0(,%rax,4), %rdx
	movq	-2184(%rbp), %rax
	addq	%rdx, %rax
	movl	-4792(%rbp), %edx
	addl	%ecx, %edx
	movl	%edx, (%rax)
	movq	-2152(%rbp), %rax
	leaq	0(,%rax,4), %rdx
	movq	-2184(%rbp), %rax
	addq	%rdx, %rax
	movl	(%rax), %edx
	movq	-2176(%rbp), %rax
	leaq	0(,%rax,4), %rcx
	movq	-2184(%rbp), %rax
	addq	%rcx, %rax
	movl	(%rax), %eax
	xorl	%edx, %eax
	movq	-2152(%rbp), %rdx
	leaq	0(,%rdx,4), %rcx
	movq	-2184(%rbp), %rdx
	addq	%rcx, %rdx
	movl	%eax, -4784(%rbp)
	movl	$16, -4780(%rbp)
	movl	-4780(%rbp), %eax
	movl	-4784(%rbp), %esi
	movl	%eax, %ecx
	rorl	%cl, %esi
	movl	%esi, %eax
	movl	%eax, (%rdx)
	movq	-2160(%rbp), %rax
	leaq	0(,%rax,4), %rdx
	movq	-2184(%rbp), %rax
	addq	%rdx, %rax
	movl	(%rax), %ecx
	movq	-2152(%rbp), %rax
	leaq	0(,%rax,4), %rdx
	movq	-2184(%rbp), %rax
	addq	%rdx, %rax
	movl	(%rax), %edx
	movq	-2160(%rbp), %rax
	leaq	0(,%rax,4), %rsi
	movq	-2184(%rbp), %rax
	addq	%rsi, %rax
	addl	%ecx, %edx
	movl	%edx, (%rax)
	movq	-2168(%rbp), %rax
	leaq	0(,%rax,4), %rdx
	movq	-2184(%rbp), %rax
	addq	%rdx, %rax
	movl	(%rax), %edx
	movq	-2160(%rbp), %rax
	leaq	0(,%rax,4), %rcx
	movq	-2184(%rbp), %rax
	addq	%rcx, %rax
	movl	(%rax), %eax
	xorl	%edx, %eax
	movq	-2168(%rbp), %rdx
	leaq	0(,%rdx,4), %rcx
	movq	-2184(%rbp), %rdx
	addq	%rcx, %rdx
	movl	%eax, -4776(%rbp)
	movl	$12, -4772(%rbp)
	movl	-4772(%rbp), %eax
	movl	-4776(%rbp), %esi
	movl	%eax, %ecx
	rorl	%cl, %esi
	movl	%esi, %eax
	movl	%eax, (%rdx)
	movq	-2176(%rbp), %rax
	leaq	0(,%rax,4), %rdx
	movq	-2184(%rbp), %rax
	addq	%rdx, %rax
	movl	(%rax), %edx
	movq	-2168(%rbp), %rax
	leaq	0(,%rax,4), %rcx
	movq	-2184(%rbp), %rax
	addq	%rcx, %rax
	movl	(%rax), %eax
	leal	(%rdx,%rax), %ecx
	movq	-2176(%rbp), %rax
	leaq	0(,%rax,4), %rdx
	movq	-2184(%rbp), %rax
	addq	%rdx, %rax
	movl	-4788(%rbp), %edx
	addl	%ecx, %edx
	movl	%edx, (%rax)
	movq	-2152(%rbp), %rax
	leaq	0(,%rax,4), %rdx
	movq	-2184(%rbp), %rax
	addq	%rdx, %rax
	movl	(%rax), %edx
	movq	-2176(%rbp), %rax
	leaq	0(,%rax,4), %rcx
	movq	-2184(%rbp), %rax
	addq	%rcx, %rax
	movl	(%rax), %eax
	xorl	%edx, %eax
	movq	-2152(%rbp), %rdx
	leaq	0(,%rdx,4), %rcx
	movq	-2184(%rbp), %rdx
	addq	%rcx, %rdx
	movl	%eax, -4768(%rbp)
	movl	$8, -4764(%rbp)
	movl	-4764(%rbp), %eax
	movl	-4768(%rbp), %esi
	movl	%eax, %ecx
	rorl	%cl, %esi
	movl	%esi, %eax
	movl	%eax, (%rdx)
	movq	-2160(%rbp), %rax
	leaq	0(,%rax,4), %rdx
	movq	-2184(%rbp), %rax
	addq	%rdx, %rax
	movl	(%rax), %ecx
	movq	-2152(%rbp), %rax
	leaq	0(,%rax,4), %rdx
	movq	-2184(%rbp), %rax
	addq	%rdx, %rax
	movl	(%rax), %edx
	movq	-2160(%rbp), %rax
	leaq	0(,%rax,4), %rsi
	movq	-2184(%rbp), %rax
	addq	%rsi, %rax
	addl	%ecx, %edx
	movl	%edx, (%rax)
	movq	-2168(%rbp), %rax
	leaq	0(,%rax,4), %rdx
	movq	-2184(%rbp), %rax
	addq	%rdx, %rax
	movl	(%rax), %edx
	movq	-2160(%rbp), %rax
	leaq	0(,%rax,4), %rcx
	movq	-2184(%rbp), %rax
	addq	%rcx, %rax
	movl	(%rax), %eax
	xorl	%edx, %eax
	movq	-2168(%rbp), %rdx
	leaq	0(,%rdx,4), %rcx
	movq	-2184(%rbp), %rdx
	addq	%rcx, %rdx
	movl	%eax, -4760(%rbp)
	movl	$7, -4756(%rbp)
	movl	-4756(%rbp), %eax
	movl	-4760(%rbp), %esi
	movl	%eax, %ecx
	rorl	%cl, %esi
	movl	%esi, %eax
	movl	%eax, (%rdx)
	nop
	movq	-2232(%rbp), %rax
	addq	$5, %rax
	movzbl	(%rax), %eax
	movzbl	%al, %eax
	leaq	0(,%rax,4), %rdx
	movq	-2248(%rbp), %rax
	addq	%rdx, %rax
	movl	(%rax), %eax
	movq	-2232(%rbp), %rdx
	addq	$4, %rdx
	movzbl	(%rdx), %edx
	movzbl	%dl, %edx
	leaq	0(,%rdx,4), %rcx
	movq	-2248(%rbp), %rdx
	addq	%rcx, %rdx
	movl	(%rdx), %edx
	movq	-2256(%rbp), %rcx
	movq	%rcx, -2144(%rbp)
	movq	$2, -2136(%rbp)
	movq	$6, -2128(%rbp)
	movq	$10, -2120(%rbp)
	movq	$14, -2112(%rbp)
	movl	%edx, -4752(%rbp)
	movl	%eax, -4748(%rbp)
	movq	-2136(%rbp), %rax
	leaq	0(,%rax,4), %rdx
	movq	-2144(%rbp), %rax
	addq	%rdx, %rax
	movl	(%rax), %edx
	movq	-2128(%rbp), %rax
	leaq	0(,%rax,4), %rcx
	movq	-2144(%rbp), %rax
	addq	%rcx, %rax
	movl	(%rax), %eax
	leal	(%rdx,%rax), %ecx
	movq	-2136(%rbp), %rax
	leaq	0(,%rax,4), %rdx
	movq	-2144(%rbp), %rax
	addq	%rdx, %rax
	movl	-4752(%rbp), %edx
	addl	%ecx, %edx
	movl	%edx, (%rax)
	movq	-2112(%rbp), %rax
	leaq	0(,%rax,4), %rdx
	movq	-2144(%rbp), %rax
	addq	%rdx, %rax
	movl	(%rax), %edx
	movq	-2136(%rbp), %rax
	leaq	0(,%rax,4), %rcx
	movq	-2144(%rbp), %rax
	addq	%rcx, %rax
	movl	(%rax), %eax
	xorl	%edx, %eax
	movq	-2112(%rbp), %rdx
	leaq	0(,%rdx,4), %rcx
	movq	-2144(%rbp), %rdx
	addq	%rcx, %rdx
	movl	%eax, -4744(%rbp)
	movl	$16, -4740(%rbp)
	movl	-4740(%rbp), %eax
	movl	-4744(%rbp), %esi
	movl	%eax, %ecx
	rorl	%cl, %esi
	movl	%esi, %eax
	movl	%eax, (%rdx)
	movq	-2120(%rbp), %rax
	leaq	0(,%rax,4), %rdx
	movq	-2144(%rbp), %rax
	addq	%rdx, %rax
	movl	(%rax), %ecx
	movq	-2112(%rbp), %rax
	leaq	0(,%rax,4), %rdx
	movq	-2144(%rbp), %rax
	addq	%rdx, %rax
	movl	(%rax), %edx
	movq	-2120(%rbp), %rax
	leaq	0(,%rax,4), %rsi
	movq	-2144(%rbp), %rax
	addq	%rsi, %rax
	addl	%ecx, %edx
	movl	%edx, (%rax)
	movq	-2128(%rbp), %rax
	leaq	0(,%rax,4), %rdx
	movq	-2144(%rbp), %rax
	addq	%rdx, %rax
	movl	(%rax), %edx
	movq	-2120(%rbp), %rax
	leaq	0(,%rax,4), %rcx
	movq	-2144(%rbp), %rax
	addq	%rcx, %rax
	movl	(%rax), %eax
	xorl	%edx, %eax
	movq	-2128(%rbp), %rdx
	leaq	0(,%rdx,4), %rcx
	movq	-2144(%rbp), %rdx
	addq	%rcx, %rdx
	movl	%eax, -4736(%rbp)
	movl	$12, -4732(%rbp)
	movl	-4732(%rbp), %eax
	movl	-4736(%rbp), %esi
	movl	%eax, %ecx
	rorl	%cl, %esi
	movl	%esi, %eax
	movl	%eax, (%rdx)
	movq	-2136(%rbp), %rax
	leaq	0(,%rax,4), %rdx
	movq	-2144(%rbp), %rax
	addq	%rdx, %rax
	movl	(%rax), %edx
	movq	-2128(%rbp), %rax
	leaq	0(,%rax,4), %rcx
	movq	-2144(%rbp), %rax
	addq	%rcx, %rax
	movl	(%rax), %eax
	leal	(%rdx,%rax), %ecx
	movq	-2136(%rbp), %rax
	leaq	0(,%rax,4), %rdx
	movq	-2144(%rbp), %rax
	addq	%rdx, %rax
	movl	-4748(%rbp), %edx
	addl	%ecx, %edx
	movl	%edx, (%rax)
	movq	-2112(%rbp), %rax
	leaq	0(,%rax,4), %rdx
	movq	-2144(%rbp), %rax
	addq	%rdx, %rax
	movl	(%rax), %edx
	movq	-2136(%rbp), %rax
	leaq	0(,%rax,4), %rcx
	movq	-2144(%rbp), %rax
	addq	%rcx, %rax
	movl	(%rax), %eax
	xorl	%edx, %eax
	movq	-2112(%rbp), %rdx
	leaq	0(,%rdx,4), %rcx
	movq	-2144(%rbp), %rdx
	addq	%rcx, %rdx
	movl	%eax, -4728(%rbp)
	movl	$8, -4724(%rbp)
	movl	-4724(%rbp), %eax
	movl	-4728(%rbp), %esi
	movl	%eax, %ecx
	rorl	%cl, %esi
	movl	%esi, %eax
	movl	%eax, (%rdx)
	movq	-2120(%rbp), %rax
	leaq	0(,%rax,4), %rdx
	movq	-2144(%rbp), %rax
	addq	%rdx, %rax
	movl	(%rax), %ecx
	movq	-2112(%rbp), %rax
	leaq	0(,%rax,4), %rdx
	movq	-2144(%rbp), %rax
	addq	%rdx, %rax
	movl	(%rax), %edx
	movq	-2120(%rbp), %rax
	leaq	0(,%rax,4), %rsi
	movq	-2144(%rbp), %rax
	addq	%rsi, %rax
	addl	%ecx, %edx
	movl	%edx, (%rax)
	movq	-2128(%rbp), %rax
	leaq	0(,%rax,4), %rdx
	movq	-2144(%rbp), %rax
	addq	%rdx, %rax
	movl	(%rax), %edx
	movq	-2120(%rbp), %rax
	leaq	0(,%rax,4), %rcx
	movq	-2144(%rbp), %rax
	addq	%rcx, %rax
	movl	(%rax), %eax
	xorl	%edx, %eax
	movq	-2128(%rbp), %rdx
	leaq	0(,%rdx,4), %rcx
	movq	-2144(%rbp), %rdx
	addq	%rcx, %rdx
	movl	%eax, -4720(%rbp)
	movl	$7, -4716(%rbp)
	movl	-4716(%rbp), %eax
	movl	-4720(%rbp), %esi
	movl	%eax, %ecx
	rorl	%cl, %esi
	movl	%esi, %eax
	movl	%eax, (%rdx)
	nop
	movq	-2232(%rbp), %rax
	addq	$7, %rax
	movzbl	(%rax), %eax
	movzbl	%al, %eax
	leaq	0(,%rax,4), %rdx
	movq	-2248(%rbp), %rax
	addq	%rdx, %rax
	movl	(%rax), %eax
	movq	-2232(%rbp), %rdx
	addq	$6, %rdx
	movzbl	(%rdx), %edx
	movzbl	%dl, %edx
	leaq	0(,%rdx,4), %rcx
	movq	-2248(%rbp), %rdx
	addq	%rcx, %rdx
	movl	(%rdx), %edx
	movq	-2256(%rbp), %rcx
	movq	%rcx, -2104(%rbp)
	movq	$3, -2096(%rbp)
	movq	$7, -2088(%rbp)
	movq	$11, -2080(%rbp)
	movq	$15, -2072(%rbp)
	movl	%edx, -4712(%rbp)
	movl	%eax, -4708(%rbp)
	movq	-2096(%rbp), %rax
	leaq	0(,%rax,4), %rdx
	movq	-2104(%rbp), %rax
	addq	%rdx, %rax
	movl	(%rax), %edx
	movq	-2088(%rbp), %rax
	leaq	0(,%rax,4), %rcx
	movq	-2104(%rbp), %rax
	addq	%rcx, %rax
	movl	(%rax), %eax
	leal	(%rdx,%rax), %ecx
	movq	-2096(%rbp), %rax
	leaq	0(,%rax,4), %rdx
	movq	-2104(%rbp), %rax
	addq	%rdx, %rax
	movl	-4712(%rbp), %edx
	addl	%ecx, %edx
	movl	%edx, (%rax)
	movq	-2072(%rbp), %rax
	leaq	0(,%rax,4), %rdx
	movq	-2104(%rbp), %rax
	addq	%rdx, %rax
	movl	(%rax), %edx
	movq	-2096(%rbp), %rax
	leaq	0(,%rax,4), %rcx
	movq	-2104(%rbp), %rax
	addq	%rcx, %rax
	movl	(%rax), %eax
	xorl	%edx, %eax
	movq	-2072(%rbp), %rdx
	leaq	0(,%rdx,4), %rcx
	movq	-2104(%rbp), %rdx
	addq	%rcx, %rdx
	movl	%eax, -4704(%rbp)
	movl	$16, -4700(%rbp)
	movl	-4700(%rbp), %eax
	movl	-4704(%rbp), %esi
	movl	%eax, %ecx
	rorl	%cl, %esi
	movl	%esi, %eax
	movl	%eax, (%rdx)
	movq	-2080(%rbp), %rax
	leaq	0(,%rax,4), %rdx
	movq	-2104(%rbp), %rax
	addq	%rdx, %rax
	movl	(%rax), %ecx
	movq	-2072(%rbp), %rax
	leaq	0(,%rax,4), %rdx
	movq	-2104(%rbp), %rax
	addq	%rdx, %rax
	movl	(%rax), %edx
	movq	-2080(%rbp), %rax
	leaq	0(,%rax,4), %rsi
	movq	-2104(%rbp), %rax
	addq	%rsi, %rax
	addl	%ecx, %edx
	movl	%edx, (%rax)
	movq	-2088(%rbp), %rax
	leaq	0(,%rax,4), %rdx
	movq	-2104(%rbp), %rax
	addq	%rdx, %rax
	movl	(%rax), %edx
	movq	-2080(%rbp), %rax
	leaq	0(,%rax,4), %rcx
	movq	-2104(%rbp), %rax
	addq	%rcx, %rax
	movl	(%rax), %eax
	xorl	%edx, %eax
	movq	-2088(%rbp), %rdx
	leaq	0(,%rdx,4), %rcx
	movq	-2104(%rbp), %rdx
	addq	%rcx, %rdx
	movl	%eax, -4696(%rbp)
	movl	$12, -4692(%rbp)
	movl	-4692(%rbp), %eax
	movl	-4696(%rbp), %esi
	movl	%eax, %ecx
	rorl	%cl, %esi
	movl	%esi, %eax
	movl	%eax, (%rdx)
	movq	-2096(%rbp), %rax
	leaq	0(,%rax,4), %rdx
	movq	-2104(%rbp), %rax
	addq	%rdx, %rax
	movl	(%rax), %edx
	movq	-2088(%rbp), %rax
	leaq	0(,%rax,4), %rcx
	movq	-2104(%rbp), %rax
	addq	%rcx, %rax
	movl	(%rax), %eax
	leal	(%rdx,%rax), %ecx
	movq	-2096(%rbp), %rax
	leaq	0(,%rax,4), %rdx
	movq	-2104(%rbp), %rax
	addq	%rdx, %rax
	movl	-4708(%rbp), %edx
	addl	%ecx, %edx
	movl	%edx, (%rax)
	movq	-2072(%rbp), %rax
	leaq	0(,%rax,4), %rdx
	movq	-2104(%rbp), %rax
	addq	%rdx, %rax
	movl	(%rax), %edx
	movq	-2096(%rbp), %rax
	leaq	0(,%rax,4), %rcx
	movq	-2104(%rbp), %rax
	addq	%rcx, %rax
	movl	(%rax), %eax
	xorl	%edx, %eax
	movq	-2072(%rbp), %rdx
	leaq	0(,%rdx,4), %rcx
	movq	-2104(%rbp), %rdx
	addq	%rcx, %rdx
	movl	%eax, -4688(%rbp)
	movl	$8, -4684(%rbp)
	movl	-4684(%rbp), %eax
	movl	-4688(%rbp), %esi
	movl	%eax, %ecx
	rorl	%cl, %esi
	movl	%esi, %eax
	movl	%eax, (%rdx)
	movq	-2080(%rbp), %rax
	leaq	0(,%rax,4), %rdx
	movq	-2104(%rbp), %rax
	addq	%rdx, %rax
	movl	(%rax), %ecx
	movq	-2072(%rbp), %rax
	leaq	0(,%rax,4), %rdx
	movq	-2104(%rbp), %rax
	addq	%rdx, %rax
	movl	(%rax), %edx
	movq	-2080(%rbp), %rax
	leaq	0(,%rax,4), %rsi
	movq	-2104(%rbp), %rax
	addq	%rsi, %rax
	addl	%ecx, %edx
	movl	%edx, (%rax)
	movq	-2088(%rbp), %rax
	leaq	0(,%rax,4), %rdx
	movq	-2104(%rbp), %rax
	addq	%rdx, %rax
	movl	(%rax), %edx
	movq	-2080(%rbp), %rax
	leaq	0(,%rax,4), %rcx
	movq	-2104(%rbp), %rax
	addq	%rcx, %rax
	movl	(%rax), %eax
	xorl	%edx, %eax
	movq	-2088(%rbp), %rdx
	leaq	0(,%rdx,4), %rcx
	movq	-2104(%rbp), %rdx
	addq	%rcx, %rdx
	movl	%eax, -4680(%rbp)
	movl	$7, -4676(%rbp)
	movl	-4676(%rbp), %eax
	movl	-4680(%rbp), %esi
	movl	%eax, %ecx
	rorl	%cl, %esi
	movl	%esi, %eax
	movl	%eax, (%rdx)
	nop
	movq	-2232(%rbp), %rax
	addq	$9, %rax
	movzbl	(%rax), %eax
	movzbl	%al, %eax
	leaq	0(,%rax,4), %rdx
	movq	-2248(%rbp), %rax
	addq	%rdx, %rax
	movl	(%rax), %eax
	movq	-2232(%rbp), %rdx
	addq	$8, %rdx
	movzbl	(%rdx), %edx
	movzbl	%dl, %edx
	leaq	0(,%rdx,4), %rcx
	movq	-2248(%rbp), %rdx
	addq	%rcx, %rdx
	movl	(%rdx), %edx
	movq	-2256(%rbp), %rcx
	movq	%rcx, -2064(%rbp)
	movq	$0, -2056(%rbp)
	movq	$5, -2048(%rbp)
	movq	$10, -2040(%rbp)
	movq	$15, -2032(%rbp)
	movl	%edx, -4672(%rbp)
	movl	%eax, -4668(%rbp)
	movq	-2056(%rbp), %rax
	leaq	0(,%rax,4), %rdx
	movq	-2064(%rbp), %rax
	addq	%rdx, %rax
	movl	(%rax), %edx
	movq	-2048(%rbp), %rax
	leaq	0(,%rax,4), %rcx
	movq	-2064(%rbp), %rax
	addq	%rcx, %rax
	movl	(%rax), %eax
	leal	(%rdx,%rax), %ecx
	movq	-2056(%rbp), %rax
	leaq	0(,%rax,4), %rdx
	movq	-2064(%rbp), %rax
	addq	%rdx, %rax
	movl	-4672(%rbp), %edx
	addl	%ecx, %edx
	movl	%edx, (%rax)
	movq	-2032(%rbp), %rax
	leaq	0(,%rax,4), %rdx
	movq	-2064(%rbp), %rax
	addq	%rdx, %rax
	movl	(%rax), %edx
	movq	-2056(%rbp), %rax
	leaq	0(,%rax,4), %rcx
	movq	-2064(%rbp), %rax
	addq	%rcx, %rax
	movl	(%rax), %eax
	xorl	%edx, %eax
	movq	-2032(%rbp), %rdx
	leaq	0(,%rdx,4), %rcx
	movq	-2064(%rbp), %rdx
	addq	%rcx, %rdx
	movl	%eax, -4664(%rbp)
	movl	$16, -4660(%rbp)
	movl	-4660(%rbp), %eax
	movl	-4664(%rbp), %esi
	movl	%eax, %ecx
	rorl	%cl, %esi
	movl	%esi, %eax
	movl	%eax, (%rdx)
	movq	-2040(%rbp), %rax
	leaq	0(,%rax,4), %rdx
	movq	-2064(%rbp), %rax
	addq	%rdx, %rax
	movl	(%rax), %ecx
	movq	-2032(%rbp), %rax
	leaq	0(,%rax,4), %rdx
	movq	-2064(%rbp), %rax
	addq	%rdx, %rax
	movl	(%rax), %edx
	movq	-2040(%rbp), %rax
	leaq	0(,%rax,4), %rsi
	movq	-2064(%rbp), %rax
	addq	%rsi, %rax
	addl	%ecx, %edx
	movl	%edx, (%rax)
	movq	-2048(%rbp), %rax
	leaq	0(,%rax,4), %rdx
	movq	-2064(%rbp), %rax
	addq	%rdx, %rax
	movl	(%rax), %edx
	movq	-2040(%rbp), %rax
	leaq	0(,%rax,4), %rcx
	movq	-2064(%rbp), %rax
	addq	%rcx, %rax
	movl	(%rax), %eax
	xorl	%edx, %eax
	movq	-2048(%rbp), %rdx
	leaq	0(,%rdx,4), %rcx
	movq	-2064(%rbp), %rdx
	addq	%rcx, %rdx
	movl	%eax, -4656(%rbp)
	movl	$12, -4652(%rbp)
	movl	-4652(%rbp), %eax
	movl	-4656(%rbp), %esi
	movl	%eax, %ecx
	rorl	%cl, %esi
	movl	%esi, %eax
	movl	%eax, (%rdx)
	movq	-2056(%rbp), %rax
	leaq	0(,%rax,4), %rdx
	movq	-2064(%rbp), %rax
	addq	%rdx, %rax
	movl	(%rax), %edx
	movq	-2048(%rbp), %rax
	leaq	0(,%rax,4), %rcx
	movq	-2064(%rbp), %rax
	addq	%rcx, %rax
	movl	(%rax), %eax
	leal	(%rdx,%rax), %ecx
	movq	-2056(%rbp), %rax
	leaq	0(,%rax,4), %rdx
	movq	-2064(%rbp), %rax
	addq	%rdx, %rax
	movl	-4668(%rbp), %edx
	addl	%ecx, %edx
	movl	%edx, (%rax)
	movq	-2032(%rbp), %rax
	leaq	0(,%rax,4), %rdx
	movq	-2064(%rbp), %rax
	addq	%rdx, %rax
	movl	(%rax), %edx
	movq	-2056(%rbp), %rax
	leaq	0(,%rax,4), %rcx
	movq	-2064(%rbp), %rax
	addq	%rcx, %rax
	movl	(%rax), %eax
	xorl	%edx, %eax
	movq	-2032(%rbp), %rdx
	leaq	0(,%rdx,4), %rcx
	movq	-2064(%rbp), %rdx
	addq	%rcx, %rdx
	movl	%eax, -4648(%rbp)
	movl	$8, -4644(%rbp)
	movl	-4644(%rbp), %eax
	movl	-4648(%rbp), %esi
	movl	%eax, %ecx
	rorl	%cl, %esi
	movl	%esi, %eax
	movl	%eax, (%rdx)
	movq	-2040(%rbp), %rax
	leaq	0(,%rax,4), %rdx
	movq	-2064(%rbp), %rax
	addq	%rdx, %rax
	movl	(%rax), %ecx
	movq	-2032(%rbp), %rax
	leaq	0(,%rax,4), %rdx
	movq	-2064(%rbp), %rax
	addq	%rdx, %rax
	movl	(%rax), %edx
	movq	-2040(%rbp), %rax
	leaq	0(,%rax,4), %rsi
	movq	-2064(%rbp), %rax
	addq	%rsi, %rax
	addl	%ecx, %edx
	movl	%edx, (%rax)
	movq	-2048(%rbp), %rax
	leaq	0(,%rax,4), %rdx
	movq	-2064(%rbp), %rax
	addq	%rdx, %rax
	movl	(%rax), %edx
	movq	-2040(%rbp), %rax
	leaq	0(,%rax,4), %rcx
	movq	-2064(%rbp), %rax
	addq	%rcx, %rax
	movl	(%rax), %eax
	xorl	%edx, %eax
	movq	-2048(%rbp), %rdx
	leaq	0(,%rdx,4), %rcx
	movq	-2064(%rbp), %rdx
	addq	%rcx, %rdx
	movl	%eax, -4640(%rbp)
	movl	$7, -4636(%rbp)
	movl	-4636(%rbp), %eax
	movl	-4640(%rbp), %esi
	movl	%eax, %ecx
	rorl	%cl, %esi
	movl	%esi, %eax
	movl	%eax, (%rdx)
	nop
	movq	-2232(%rbp), %rax
	addq	$11, %rax
	movzbl	(%rax), %eax
	movzbl	%al, %eax
	leaq	0(,%rax,4), %rdx
	movq	-2248(%rbp), %rax
	addq	%rdx, %rax
	movl	(%rax), %eax
	movq	-2232(%rbp), %rdx
	addq	$10, %rdx
	movzbl	(%rdx), %edx
	movzbl	%dl, %edx
	leaq	0(,%rdx,4), %rcx
	movq	-2248(%rbp), %rdx
	addq	%rcx, %rdx
	movl	(%rdx), %edx
	movq	-2256(%rbp), %rcx
	movq	%rcx, -2024(%rbp)
	movq	$1, -2016(%rbp)
	movq	$6, -2008(%rbp)
	movq	$11, -2000(%rbp)
	movq	$12, -1992(%rbp)
	movl	%edx, -4632(%rbp)
	movl	%eax, -4628(%rbp)
	movq	-2016(%rbp), %rax
	leaq	0(,%rax,4), %rdx
	movq	-2024(%rbp), %rax
	addq	%rdx, %rax
	movl	(%rax), %edx
	movq	-2008(%rbp), %rax
	leaq	0(,%rax,4), %rcx
	movq	-2024(%rbp), %rax
	addq	%rcx, %rax
	movl	(%rax), %eax
	leal	(%rdx,%rax), %ecx
	movq	-2016(%rbp), %rax
	leaq	0(,%rax,4), %rdx
	movq	-2024(%rbp), %rax
	addq	%rdx, %rax
	movl	-4632(%rbp), %edx
	addl	%ecx, %edx
	movl	%edx, (%rax)
	movq	-1992(%rbp), %rax
	leaq	0(,%rax,4), %rdx
	movq	-2024(%rbp), %rax
	addq	%rdx, %rax
	movl	(%rax), %edx
	movq	-2016(%rbp), %rax
	leaq	0(,%rax,4), %rcx
	movq	-2024(%rbp), %rax
	addq	%rcx, %rax
	movl	(%rax), %eax
	xorl	%edx, %eax
	movq	-1992(%rbp), %rdx
	leaq	0(,%rdx,4), %rcx
	movq	-2024(%rbp), %rdx
	addq	%rcx, %rdx
	movl	%eax, -4624(%rbp)
	movl	$16, -4620(%rbp)
	movl	-4620(%rbp), %eax
	movl	-4624(%rbp), %esi
	movl	%eax, %ecx
	rorl	%cl, %esi
	movl	%esi, %eax
	movl	%eax, (%rdx)
	movq	-2000(%rbp), %rax
	leaq	0(,%rax,4), %rdx
	movq	-2024(%rbp), %rax
	addq	%rdx, %rax
	movl	(%rax), %ecx
	movq	-1992(%rbp), %rax
	leaq	0(,%rax,4), %rdx
	movq	-2024(%rbp), %rax
	addq	%rdx, %rax
	movl	(%rax), %edx
	movq	-2000(%rbp), %rax
	leaq	0(,%rax,4), %rsi
	movq	-2024(%rbp), %rax
	addq	%rsi, %rax
	addl	%ecx, %edx
	movl	%edx, (%rax)
	movq	-2008(%rbp), %rax
	leaq	0(,%rax,4), %rdx
	movq	-2024(%rbp), %rax
	addq	%rdx, %rax
	movl	(%rax), %edx
	movq	-2000(%rbp), %rax
	leaq	0(,%rax,4), %rcx
	movq	-2024(%rbp), %rax
	addq	%rcx, %rax
	movl	(%rax), %eax
	xorl	%edx, %eax
	movq	-2008(%rbp), %rdx
	leaq	0(,%rdx,4), %rcx
	movq	-2024(%rbp), %rdx
	addq	%rcx, %rdx
	movl	%eax, -4616(%rbp)
	movl	$12, -4612(%rbp)
	movl	-4612(%rbp), %eax
	movl	-4616(%rbp), %esi
	movl	%eax, %ecx
	rorl	%cl, %esi
	movl	%esi, %eax
	movl	%eax, (%rdx)
	movq	-2016(%rbp), %rax
	leaq	0(,%rax,4), %rdx
	movq	-2024(%rbp), %rax
	addq	%rdx, %rax
	movl	(%rax), %edx
	movq	-2008(%rbp), %rax
	leaq	0(,%rax,4), %rcx
	movq	-2024(%rbp), %rax
	addq	%rcx, %rax
	movl	(%rax), %eax
	leal	(%rdx,%rax), %ecx
	movq	-2016(%rbp), %rax
	leaq	0(,%rax,4), %rdx
	movq	-2024(%rbp), %rax
	addq	%rdx, %rax
	movl	-4628(%rbp), %edx
	addl	%ecx, %edx
	movl	%edx, (%rax)
	movq	-1992(%rbp), %rax
	leaq	0(,%rax,4), %rdx
	movq	-2024(%rbp), %rax
	addq	%rdx, %rax
	movl	(%rax), %edx
	movq	-2016(%rbp), %rax
	leaq	0(,%rax,4), %rcx
	movq	-2024(%rbp), %rax
	addq	%rcx, %rax
	movl	(%rax), %eax
	xorl	%edx, %eax
	movq	-1992(%rbp), %rdx
	leaq	0(,%rdx,4), %rcx
	movq	-2024(%rbp), %rdx
	addq	%rcx, %rdx
	movl	%eax, -4608(%rbp)
	movl	$8, -4604(%rbp)
	movl	-4604(%rbp), %eax
	movl	-4608(%rbp), %esi
	movl	%eax, %ecx
	rorl	%cl, %esi
	movl	%esi, %eax
	movl	%eax, (%rdx)
	movq	-2000(%rbp), %rax
	leaq	0(,%rax,4), %rdx
	movq	-2024(%rbp), %rax
	addq	%rdx, %rax
	movl	(%rax), %ecx
	movq	-1992(%rbp), %rax
	leaq	0(,%rax,4), %rdx
	movq	-2024(%rbp), %rax
	addq	%rdx, %rax
	movl	(%rax), %edx
	movq	-2000(%rbp), %rax
	leaq	0(,%rax,4), %rsi
	movq	-2024(%rbp), %rax
	addq	%rsi, %rax
	addl	%ecx, %edx
	movl	%edx, (%rax)
	movq	-2008(%rbp), %rax
	leaq	0(,%rax,4), %rdx
	movq	-2024(%rbp), %rax
	addq	%rdx, %rax
	movl	(%rax), %edx
	movq	-2000(%rbp), %rax
	leaq	0(,%rax,4), %rcx
	movq	-2024(%rbp), %rax
	addq	%rcx, %rax
	movl	(%rax), %eax
	xorl	%edx, %eax
	movq	-2008(%rbp), %rdx
	leaq	0(,%rdx,4), %rcx
	movq	-2024(%rbp), %rdx
	addq	%rcx, %rdx
	movl	%eax, -4600(%rbp)
	movl	$7, -4596(%rbp)
	movl	-4596(%rbp), %eax
	movl	-4600(%rbp), %esi
	movl	%eax, %ecx
	rorl	%cl, %esi
	movl	%esi, %eax
	movl	%eax, (%rdx)
	nop
	movq	-2232(%rbp), %rax
	addq	$13, %rax
	movzbl	(%rax), %eax
	movzbl	%al, %eax
	leaq	0(,%rax,4), %rdx
	movq	-2248(%rbp), %rax
	addq	%rdx, %rax
	movl	(%rax), %eax
	movq	-2232(%rbp), %rdx
	addq	$12, %rdx
	movzbl	(%rdx), %edx
	movzbl	%dl, %edx
	leaq	0(,%rdx,4), %rcx
	movq	-2248(%rbp), %rdx
	addq	%rcx, %rdx
	movl	(%rdx), %edx
	movq	-2256(%rbp), %rcx
	movq	%rcx, -1984(%rbp)
	movq	$2, -1976(%rbp)
	movq	$7, -1968(%rbp)
	movq	$8, -1960(%rbp)
	movq	$13, -1952(%rbp)
	movl	%edx, -4592(%rbp)
	movl	%eax, -4588(%rbp)
	movq	-1976(%rbp), %rax
	leaq	0(,%rax,4), %rdx
	movq	-1984(%rbp), %rax
	addq	%rdx, %rax
	movl	(%rax), %edx
	movq	-1968(%rbp), %rax
	leaq	0(,%rax,4), %rcx
	movq	-1984(%rbp), %rax
	addq	%rcx, %rax
	movl	(%rax), %eax
	leal	(%rdx,%rax), %ecx
	movq	-1976(%rbp), %rax
	leaq	0(,%rax,4), %rdx
	movq	-1984(%rbp), %rax
	addq	%rdx, %rax
	movl	-4592(%rbp), %edx
	addl	%ecx, %edx
	movl	%edx, (%rax)
	movq	-1952(%rbp), %rax
	leaq	0(,%rax,4), %rdx
	movq	-1984(%rbp), %rax
	addq	%rdx, %rax
	movl	(%rax), %edx
	movq	-1976(%rbp), %rax
	leaq	0(,%rax,4), %rcx
	movq	-1984(%rbp), %rax
	addq	%rcx, %rax
	movl	(%rax), %eax
	xorl	%edx, %eax
	movq	-1952(%rbp), %rdx
	leaq	0(,%rdx,4), %rcx
	movq	-1984(%rbp), %rdx
	addq	%rcx, %rdx
	movl	%eax, -4584(%rbp)
	movl	$16, -4580(%rbp)
	movl	-4580(%rbp), %eax
	movl	-4584(%rbp), %esi
	movl	%eax, %ecx
	rorl	%cl, %esi
	movl	%esi, %eax
	movl	%eax, (%rdx)
	movq	-1960(%rbp), %rax
	leaq	0(,%rax,4), %rdx
	movq	-1984(%rbp), %rax
	addq	%rdx, %rax
	movl	(%rax), %ecx
	movq	-1952(%rbp), %rax
	leaq	0(,%rax,4), %rdx
	movq	-1984(%rbp), %rax
	addq	%rdx, %rax
	movl	(%rax), %edx
	movq	-1960(%rbp), %rax
	leaq	0(,%rax,4), %rsi
	movq	-1984(%rbp), %rax
	addq	%rsi, %rax
	addl	%ecx, %edx
	movl	%edx, (%rax)
	movq	-1968(%rbp), %rax
	leaq	0(,%rax,4), %rdx
	movq	-1984(%rbp), %rax
	addq	%rdx, %rax
	movl	(%rax), %edx
	movq	-1960(%rbp), %rax
	leaq	0(,%rax,4), %rcx
	movq	-1984(%rbp), %rax
	addq	%rcx, %rax
	movl	(%rax), %eax
	xorl	%edx, %eax
	movq	-1968(%rbp), %rdx
	leaq	0(,%rdx,4), %rcx
	movq	-1984(%rbp), %rdx
	addq	%rcx, %rdx
	movl	%eax, -4576(%rbp)
	movl	$12, -4572(%rbp)
	movl	-4572(%rbp), %eax
	movl	-4576(%rbp), %esi
	movl	%eax, %ecx
	rorl	%cl, %esi
	movl	%esi, %eax
	movl	%eax, (%rdx)
	movq	-1976(%rbp), %rax
	leaq	0(,%rax,4), %rdx
	movq	-1984(%rbp), %rax
	addq	%rdx, %rax
	movl	(%rax), %edx
	movq	-1968(%rbp), %rax
	leaq	0(,%rax,4), %rcx
	movq	-1984(%rbp), %rax
	addq	%rcx, %rax
	movl	(%rax), %eax
	leal	(%rdx,%rax), %ecx
	movq	-1976(%rbp), %rax
	leaq	0(,%rax,4), %rdx
	movq	-1984(%rbp), %rax
	addq	%rdx, %rax
	movl	-4588(%rbp), %edx
	addl	%ecx, %edx
	movl	%edx, (%rax)
	movq	-1952(%rbp), %rax
	leaq	0(,%rax,4), %rdx
	movq	-1984(%rbp), %rax
	addq	%rdx, %rax
	movl	(%rax), %edx
	movq	-1976(%rbp), %rax
	leaq	0(,%rax,4), %rcx
	movq	-1984(%rbp), %rax
	addq	%rcx, %rax
	movl	(%rax), %eax
	xorl	%edx, %eax
	movq	-1952(%rbp), %rdx
	leaq	0(,%rdx,4), %rcx
	movq	-1984(%rbp), %rdx
	addq	%rcx, %rdx
	movl	%eax, -4568(%rbp)
	movl	$8, -4564(%rbp)
	movl	-4564(%rbp), %eax
	movl	-4568(%rbp), %esi
	movl	%eax, %ecx
	rorl	%cl, %esi
	movl	%esi, %eax
	movl	%eax, (%rdx)
	movq	-1960(%rbp), %rax
	leaq	0(,%rax,4), %rdx
	movq	-1984(%rbp), %rax
	addq	%rdx, %rax
	movl	(%rax), %ecx
	movq	-1952(%rbp), %rax
	leaq	0(,%rax,4), %rdx
	movq	-1984(%rbp), %rax
	addq	%rdx, %rax
	movl	(%rax), %edx
	movq	-1960(%rbp), %rax
	leaq	0(,%rax,4), %rsi
	movq	-1984(%rbp), %rax
	addq	%rsi, %rax
	addl	%ecx, %edx
	movl	%edx, (%rax)
	movq	-1968(%rbp), %rax
	leaq	0(,%rax,4), %rdx
	movq	-1984(%rbp), %rax
	addq	%rdx, %rax
	movl	(%rax), %edx
	movq	-1960(%rbp), %rax
	leaq	0(,%rax,4), %rcx
	movq	-1984(%rbp), %rax
	addq	%rcx, %rax
	movl	(%rax), %eax
	xorl	%edx, %eax
	movq	-1968(%rbp), %rdx
	leaq	0(,%rdx,4), %rcx
	movq	-1984(%rbp), %rdx
	addq	%rcx, %rdx
	movl	%eax, -4560(%rbp)
	movl	$7, -4556(%rbp)
	movl	-4556(%rbp), %eax
	movl	-4560(%rbp), %esi
	movl	%eax, %ecx
	rorl	%cl, %esi
	movl	%esi, %eax
	movl	%eax, (%rdx)
	nop
	movq	-2232(%rbp), %rax
	addq	$15, %rax
	movzbl	(%rax), %eax
	movzbl	%al, %eax
	leaq	0(,%rax,4), %rdx
	movq	-2248(%rbp), %rax
	addq	%rdx, %rax
	movl	(%rax), %eax
	movq	-2232(%rbp), %rdx
	addq	$14, %rdx
	movzbl	(%rdx), %edx
	movzbl	%dl, %edx
	leaq	0(,%rdx,4), %rcx
	movq	-2248(%rbp), %rdx
	addq	%rcx, %rdx
	movl	(%rdx), %edx
	movq	-2256(%rbp), %rcx
	movq	%rcx, -1944(%rbp)
	movq	$3, -1936(%rbp)
	movq	$4, -1928(%rbp)
	movq	$9, -1920(%rbp)
	movq	$14, -1912(%rbp)
	movl	%edx, -4552(%rbp)
	movl	%eax, -4548(%rbp)
	movq	-1936(%rbp), %rax
	leaq	0(,%rax,4), %rdx
	movq	-1944(%rbp), %rax
	addq	%rdx, %rax
	movl	(%rax), %edx
	movq	-1928(%rbp), %rax
	leaq	0(,%rax,4), %rcx
	movq	-1944(%rbp), %rax
	addq	%rcx, %rax
	movl	(%rax), %eax
	leal	(%rdx,%rax), %ecx
	movq	-1936(%rbp), %rax
	leaq	0(,%rax,4), %rdx
	movq	-1944(%rbp), %rax
	addq	%rdx, %rax
	movl	-4552(%rbp), %edx
	addl	%ecx, %edx
	movl	%edx, (%rax)
	movq	-1912(%rbp), %rax
	leaq	0(,%rax,4), %rdx
	movq	-1944(%rbp), %rax
	addq	%rdx, %rax
	movl	(%rax), %edx
	movq	-1936(%rbp), %rax
	leaq	0(,%rax,4), %rcx
	movq	-1944(%rbp), %rax
	addq	%rcx, %rax
	movl	(%rax), %eax
	xorl	%edx, %eax
	movq	-1912(%rbp), %rdx
	leaq	0(,%rdx,4), %rcx
	movq	-1944(%rbp), %rdx
	addq	%rcx, %rdx
	movl	%eax, -4544(%rbp)
	movl	$16, -4540(%rbp)
	movl	-4540(%rbp), %eax
	movl	-4544(%rbp), %esi
	movl	%eax, %ecx
	rorl	%cl, %esi
	movl	%esi, %eax
	movl	%eax, (%rdx)
	movq	-1920(%rbp), %rax
	leaq	0(,%rax,4), %rdx
	movq	-1944(%rbp), %rax
	addq	%rdx, %rax
	movl	(%rax), %ecx
	movq	-1912(%rbp), %rax
	leaq	0(,%rax,4), %rdx
	movq	-1944(%rbp), %rax
	addq	%rdx, %rax
	movl	(%rax), %edx
	movq	-1920(%rbp), %rax
	leaq	0(,%rax,4), %rsi
	movq	-1944(%rbp), %rax
	addq	%rsi, %rax
	addl	%ecx, %edx
	movl	%edx, (%rax)
	movq	-1928(%rbp), %rax
	leaq	0(,%rax,4), %rdx
	movq	-1944(%rbp), %rax
	addq	%rdx, %rax
	movl	(%rax), %edx
	movq	-1920(%rbp), %rax
	leaq	0(,%rax,4), %rcx
	movq	-1944(%rbp), %rax
	addq	%rcx, %rax
	movl	(%rax), %eax
	xorl	%edx, %eax
	movq	-1928(%rbp), %rdx
	leaq	0(,%rdx,4), %rcx
	movq	-1944(%rbp), %rdx
	addq	%rcx, %rdx
	movl	%eax, -4536(%rbp)
	movl	$12, -4532(%rbp)
	movl	-4532(%rbp), %eax
	movl	-4536(%rbp), %esi
	movl	%eax, %ecx
	rorl	%cl, %esi
	movl	%esi, %eax
	movl	%eax, (%rdx)
	movq	-1936(%rbp), %rax
	leaq	0(,%rax,4), %rdx
	movq	-1944(%rbp), %rax
	addq	%rdx, %rax
	movl	(%rax), %edx
	movq	-1928(%rbp), %rax
	leaq	0(,%rax,4), %rcx
	movq	-1944(%rbp), %rax
	addq	%rcx, %rax
	movl	(%rax), %eax
	leal	(%rdx,%rax), %ecx
	movq	-1936(%rbp), %rax
	leaq	0(,%rax,4), %rdx
	movq	-1944(%rbp), %rax
	addq	%rdx, %rax
	movl	-4548(%rbp), %edx
	addl	%ecx, %edx
	movl	%edx, (%rax)
	movq	-1912(%rbp), %rax
	leaq	0(,%rax,4), %rdx
	movq	-1944(%rbp), %rax
	addq	%rdx, %rax
	movl	(%rax), %edx
	movq	-1936(%rbp), %rax
	leaq	0(,%rax,4), %rcx
	movq	-1944(%rbp), %rax
	addq	%rcx, %rax
	movl	(%rax), %eax
	xorl	%edx, %eax
	movq	-1912(%rbp), %rdx
	leaq	0(,%rdx,4), %rcx
	movq	-1944(%rbp), %rdx
	addq	%rcx, %rdx
	movl	%eax, -4528(%rbp)
	movl	$8, -4524(%rbp)
	movl	-4524(%rbp), %eax
	movl	-4528(%rbp), %esi
	movl	%eax, %ecx
	rorl	%cl, %esi
	movl	%esi, %eax
	movl	%eax, (%rdx)
	movq	-1920(%rbp), %rax
	leaq	0(,%rax,4), %rdx
	movq	-1944(%rbp), %rax
	addq	%rdx, %rax
	movl	(%rax), %ecx
	movq	-1912(%rbp), %rax
	leaq	0(,%rax,4), %rdx
	movq	-1944(%rbp), %rax
	addq	%rdx, %rax
	movl	(%rax), %edx
	movq	-1920(%rbp), %rax
	leaq	0(,%rax,4), %rsi
	movq	-1944(%rbp), %rax
	addq	%rsi, %rax
	addl	%ecx, %edx
	movl	%edx, (%rax)
	movq	-1928(%rbp), %rax
	leaq	0(,%rax,4), %rdx
	movq	-1944(%rbp), %rax
	addq	%rdx, %rax
	movl	(%rax), %edx
	movq	-1920(%rbp), %rax
	leaq	0(,%rax,4), %rcx
	movq	-1944(%rbp), %rax
	addq	%rcx, %rax
	movl	(%rax), %eax
	xorl	%edx, %eax
	movq	-1928(%rbp), %rdx
	leaq	0(,%rdx,4), %rcx
	movq	-1944(%rbp), %rdx
	addq	%rcx, %rdx
	movl	%eax, -4520(%rbp)
	movl	$7, -4516(%rbp)
	movl	-4516(%rbp), %eax
	movl	-4520(%rbp), %esi
	movl	%eax, %ecx
	rorl	%cl, %esi
	movl	%esi, %eax
	movl	%eax, (%rdx)
	nop
	nop
	movq	-2912(%rbp), %rax
	movq	%rax, -1904(%rbp)
	leaq	-80(%rbp), %rax
	movq	%rax, -1896(%rbp)
	movq	$2, -1888(%rbp)
	movq	-1888(%rbp), %rax
	salq	$4, %rax
	movq	%rax, %rdx
	leaq	MSG_SCHEDULE(%rip), %rax
	addq	%rdx, %rax
	movq	%rax, -1880(%rbp)
	movq	-1880(%rbp), %rax
	addq	$1, %rax
	movzbl	(%rax), %eax
	movzbl	%al, %eax
	leaq	0(,%rax,4), %rdx
	movq	-1896(%rbp), %rax
	addq	%rdx, %rax
	movl	(%rax), %eax
	movq	-1880(%rbp), %rdx
	movzbl	(%rdx), %edx
	movzbl	%dl, %edx
	leaq	0(,%rdx,4), %rcx
	movq	-1896(%rbp), %rdx
	addq	%rcx, %rdx
	movl	(%rdx), %edx
	movq	-1904(%rbp), %rcx
	movq	%rcx, -1872(%rbp)
	movq	$0, -1864(%rbp)
	movq	$4, -1856(%rbp)
	movq	$8, -1848(%rbp)
	movq	$12, -1840(%rbp)
	movl	%edx, -4512(%rbp)
	movl	%eax, -4508(%rbp)
	movq	-1864(%rbp), %rax
	leaq	0(,%rax,4), %rdx
	movq	-1872(%rbp), %rax
	addq	%rdx, %rax
	movl	(%rax), %edx
	movq	-1856(%rbp), %rax
	leaq	0(,%rax,4), %rcx
	movq	-1872(%rbp), %rax
	addq	%rcx, %rax
	movl	(%rax), %eax
	leal	(%rdx,%rax), %ecx
	movq	-1864(%rbp), %rax
	leaq	0(,%rax,4), %rdx
	movq	-1872(%rbp), %rax
	addq	%rdx, %rax
	movl	-4512(%rbp), %edx
	addl	%ecx, %edx
	movl	%edx, (%rax)
	movq	-1840(%rbp), %rax
	leaq	0(,%rax,4), %rdx
	movq	-1872(%rbp), %rax
	addq	%rdx, %rax
	movl	(%rax), %edx
	movq	-1864(%rbp), %rax
	leaq	0(,%rax,4), %rcx
	movq	-1872(%rbp), %rax
	addq	%rcx, %rax
	movl	(%rax), %eax
	xorl	%edx, %eax
	movq	-1840(%rbp), %rdx
	leaq	0(,%rdx,4), %rcx
	movq	-1872(%rbp), %rdx
	addq	%rcx, %rdx
	movl	%eax, -4504(%rbp)
	movl	$16, -4500(%rbp)
	movl	-4500(%rbp), %eax
	movl	-4504(%rbp), %esi
	movl	%eax, %ecx
	rorl	%cl, %esi
	movl	%esi, %eax
	movl	%eax, (%rdx)
	movq	-1848(%rbp), %rax
	leaq	0(,%rax,4), %rdx
	movq	-1872(%rbp), %rax
	addq	%rdx, %rax
	movl	(%rax), %ecx
	movq	-1840(%rbp), %rax
	leaq	0(,%rax,4), %rdx
	movq	-1872(%rbp), %rax
	addq	%rdx, %rax
	movl	(%rax), %edx
	movq	-1848(%rbp), %rax
	leaq	0(,%rax,4), %rsi
	movq	-1872(%rbp), %rax
	addq	%rsi, %rax
	addl	%ecx, %edx
	movl	%edx, (%rax)
	movq	-1856(%rbp), %rax
	leaq	0(,%rax,4), %rdx
	movq	-1872(%rbp), %rax
	addq	%rdx, %rax
	movl	(%rax), %edx
	movq	-1848(%rbp), %rax
	leaq	0(,%rax,4), %rcx
	movq	-1872(%rbp), %rax
	addq	%rcx, %rax
	movl	(%rax), %eax
	xorl	%edx, %eax
	movq	-1856(%rbp), %rdx
	leaq	0(,%rdx,4), %rcx
	movq	-1872(%rbp), %rdx
	addq	%rcx, %rdx
	movl	%eax, -4496(%rbp)
	movl	$12, -4492(%rbp)
	movl	-4492(%rbp), %eax
	movl	-4496(%rbp), %esi
	movl	%eax, %ecx
	rorl	%cl, %esi
	movl	%esi, %eax
	movl	%eax, (%rdx)
	movq	-1864(%rbp), %rax
	leaq	0(,%rax,4), %rdx
	movq	-1872(%rbp), %rax
	addq	%rdx, %rax
	movl	(%rax), %edx
	movq	-1856(%rbp), %rax
	leaq	0(,%rax,4), %rcx
	movq	-1872(%rbp), %rax
	addq	%rcx, %rax
	movl	(%rax), %eax
	leal	(%rdx,%rax), %ecx
	movq	-1864(%rbp), %rax
	leaq	0(,%rax,4), %rdx
	movq	-1872(%rbp), %rax
	addq	%rdx, %rax
	movl	-4508(%rbp), %edx
	addl	%ecx, %edx
	movl	%edx, (%rax)
	movq	-1840(%rbp), %rax
	leaq	0(,%rax,4), %rdx
	movq	-1872(%rbp), %rax
	addq	%rdx, %rax
	movl	(%rax), %edx
	movq	-1864(%rbp), %rax
	leaq	0(,%rax,4), %rcx
	movq	-1872(%rbp), %rax
	addq	%rcx, %rax
	movl	(%rax), %eax
	xorl	%edx, %eax
	movq	-1840(%rbp), %rdx
	leaq	0(,%rdx,4), %rcx
	movq	-1872(%rbp), %rdx
	addq	%rcx, %rdx
	movl	%eax, -4488(%rbp)
	movl	$8, -4484(%rbp)
	movl	-4484(%rbp), %eax
	movl	-4488(%rbp), %esi
	movl	%eax, %ecx
	rorl	%cl, %esi
	movl	%esi, %eax
	movl	%eax, (%rdx)
	movq	-1848(%rbp), %rax
	leaq	0(,%rax,4), %rdx
	movq	-1872(%rbp), %rax
	addq	%rdx, %rax
	movl	(%rax), %ecx
	movq	-1840(%rbp), %rax
	leaq	0(,%rax,4), %rdx
	movq	-1872(%rbp), %rax
	addq	%rdx, %rax
	movl	(%rax), %edx
	movq	-1848(%rbp), %rax
	leaq	0(,%rax,4), %rsi
	movq	-1872(%rbp), %rax
	addq	%rsi, %rax
	addl	%ecx, %edx
	movl	%edx, (%rax)
	movq	-1856(%rbp), %rax
	leaq	0(,%rax,4), %rdx
	movq	-1872(%rbp), %rax
	addq	%rdx, %rax
	movl	(%rax), %edx
	movq	-1848(%rbp), %rax
	leaq	0(,%rax,4), %rcx
	movq	-1872(%rbp), %rax
	addq	%rcx, %rax
	movl	(%rax), %eax
	xorl	%edx, %eax
	movq	-1856(%rbp), %rdx
	leaq	0(,%rdx,4), %rcx
	movq	-1872(%rbp), %rdx
	addq	%rcx, %rdx
	movl	%eax, -4480(%rbp)
	movl	$7, -4476(%rbp)
	movl	-4476(%rbp), %eax
	movl	-4480(%rbp), %esi
	movl	%eax, %ecx
	rorl	%cl, %esi
	movl	%esi, %eax
	movl	%eax, (%rdx)
	nop
	movq	-1880(%rbp), %rax
	addq	$3, %rax
	movzbl	(%rax), %eax
	movzbl	%al, %eax
	leaq	0(,%rax,4), %rdx
	movq	-1896(%rbp), %rax
	addq	%rdx, %rax
	movl	(%rax), %eax
	movq	-1880(%rbp), %rdx
	addq	$2, %rdx
	movzbl	(%rdx), %edx
	movzbl	%dl, %edx
	leaq	0(,%rdx,4), %rcx
	movq	-1896(%rbp), %rdx
	addq	%rcx, %rdx
	movl	(%rdx), %edx
	movq	-1904(%rbp), %rcx
	movq	%rcx, -1832(%rbp)
	movq	$1, -1824(%rbp)
	movq	$5, -1816(%rbp)
	movq	$9, -1808(%rbp)
	movq	$13, -1800(%rbp)
	movl	%edx, -4472(%rbp)
	movl	%eax, -4468(%rbp)
	movq	-1824(%rbp), %rax
	leaq	0(,%rax,4), %rdx
	movq	-1832(%rbp), %rax
	addq	%rdx, %rax
	movl	(%rax), %edx
	movq	-1816(%rbp), %rax
	leaq	0(,%rax,4), %rcx
	movq	-1832(%rbp), %rax
	addq	%rcx, %rax
	movl	(%rax), %eax
	leal	(%rdx,%rax), %ecx
	movq	-1824(%rbp), %rax
	leaq	0(,%rax,4), %rdx
	movq	-1832(%rbp), %rax
	addq	%rdx, %rax
	movl	-4472(%rbp), %edx
	addl	%ecx, %edx
	movl	%edx, (%rax)
	movq	-1800(%rbp), %rax
	leaq	0(,%rax,4), %rdx
	movq	-1832(%rbp), %rax
	addq	%rdx, %rax
	movl	(%rax), %edx
	movq	-1824(%rbp), %rax
	leaq	0(,%rax,4), %rcx
	movq	-1832(%rbp), %rax
	addq	%rcx, %rax
	movl	(%rax), %eax
	xorl	%edx, %eax
	movq	-1800(%rbp), %rdx
	leaq	0(,%rdx,4), %rcx
	movq	-1832(%rbp), %rdx
	addq	%rcx, %rdx
	movl	%eax, -4464(%rbp)
	movl	$16, -4460(%rbp)
	movl	-4460(%rbp), %eax
	movl	-4464(%rbp), %esi
	movl	%eax, %ecx
	rorl	%cl, %esi
	movl	%esi, %eax
	movl	%eax, (%rdx)
	movq	-1808(%rbp), %rax
	leaq	0(,%rax,4), %rdx
	movq	-1832(%rbp), %rax
	addq	%rdx, %rax
	movl	(%rax), %ecx
	movq	-1800(%rbp), %rax
	leaq	0(,%rax,4), %rdx
	movq	-1832(%rbp), %rax
	addq	%rdx, %rax
	movl	(%rax), %edx
	movq	-1808(%rbp), %rax
	leaq	0(,%rax,4), %rsi
	movq	-1832(%rbp), %rax
	addq	%rsi, %rax
	addl	%ecx, %edx
	movl	%edx, (%rax)
	movq	-1816(%rbp), %rax
	leaq	0(,%rax,4), %rdx
	movq	-1832(%rbp), %rax
	addq	%rdx, %rax
	movl	(%rax), %edx
	movq	-1808(%rbp), %rax
	leaq	0(,%rax,4), %rcx
	movq	-1832(%rbp), %rax
	addq	%rcx, %rax
	movl	(%rax), %eax
	xorl	%edx, %eax
	movq	-1816(%rbp), %rdx
	leaq	0(,%rdx,4), %rcx
	movq	-1832(%rbp), %rdx
	addq	%rcx, %rdx
	movl	%eax, -4456(%rbp)
	movl	$12, -4452(%rbp)
	movl	-4452(%rbp), %eax
	movl	-4456(%rbp), %esi
	movl	%eax, %ecx
	rorl	%cl, %esi
	movl	%esi, %eax
	movl	%eax, (%rdx)
	movq	-1824(%rbp), %rax
	leaq	0(,%rax,4), %rdx
	movq	-1832(%rbp), %rax
	addq	%rdx, %rax
	movl	(%rax), %edx
	movq	-1816(%rbp), %rax
	leaq	0(,%rax,4), %rcx
	movq	-1832(%rbp), %rax
	addq	%rcx, %rax
	movl	(%rax), %eax
	leal	(%rdx,%rax), %ecx
	movq	-1824(%rbp), %rax
	leaq	0(,%rax,4), %rdx
	movq	-1832(%rbp), %rax
	addq	%rdx, %rax
	movl	-4468(%rbp), %edx
	addl	%ecx, %edx
	movl	%edx, (%rax)
	movq	-1800(%rbp), %rax
	leaq	0(,%rax,4), %rdx
	movq	-1832(%rbp), %rax
	addq	%rdx, %rax
	movl	(%rax), %edx
	movq	-1824(%rbp), %rax
	leaq	0(,%rax,4), %rcx
	movq	-1832(%rbp), %rax
	addq	%rcx, %rax
	movl	(%rax), %eax
	xorl	%edx, %eax
	movq	-1800(%rbp), %rdx
	leaq	0(,%rdx,4), %rcx
	movq	-1832(%rbp), %rdx
	addq	%rcx, %rdx
	movl	%eax, -4448(%rbp)
	movl	$8, -4444(%rbp)
	movl	-4444(%rbp), %eax
	movl	-4448(%rbp), %esi
	movl	%eax, %ecx
	rorl	%cl, %esi
	movl	%esi, %eax
	movl	%eax, (%rdx)
	movq	-1808(%rbp), %rax
	leaq	0(,%rax,4), %rdx
	movq	-1832(%rbp), %rax
	addq	%rdx, %rax
	movl	(%rax), %ecx
	movq	-1800(%rbp), %rax
	leaq	0(,%rax,4), %rdx
	movq	-1832(%rbp), %rax
	addq	%rdx, %rax
	movl	(%rax), %edx
	movq	-1808(%rbp), %rax
	leaq	0(,%rax,4), %rsi
	movq	-1832(%rbp), %rax
	addq	%rsi, %rax
	addl	%ecx, %edx
	movl	%edx, (%rax)
	movq	-1816(%rbp), %rax
	leaq	0(,%rax,4), %rdx
	movq	-1832(%rbp), %rax
	addq	%rdx, %rax
	movl	(%rax), %edx
	movq	-1808(%rbp), %rax
	leaq	0(,%rax,4), %rcx
	movq	-1832(%rbp), %rax
	addq	%rcx, %rax
	movl	(%rax), %eax
	xorl	%edx, %eax
	movq	-1816(%rbp), %rdx
	leaq	0(,%rdx,4), %rcx
	movq	-1832(%rbp), %rdx
	addq	%rcx, %rdx
	movl	%eax, -4440(%rbp)
	movl	$7, -4436(%rbp)
	movl	-4436(%rbp), %eax
	movl	-4440(%rbp), %esi
	movl	%eax, %ecx
	rorl	%cl, %esi
	movl	%esi, %eax
	movl	%eax, (%rdx)
	nop
	movq	-1880(%rbp), %rax
	addq	$5, %rax
	movzbl	(%rax), %eax
	movzbl	%al, %eax
	leaq	0(,%rax,4), %rdx
	movq	-1896(%rbp), %rax
	addq	%rdx, %rax
	movl	(%rax), %eax
	movq	-1880(%rbp), %rdx
	addq	$4, %rdx
	movzbl	(%rdx), %edx
	movzbl	%dl, %edx
	leaq	0(,%rdx,4), %rcx
	movq	-1896(%rbp), %rdx
	addq	%rcx, %rdx
	movl	(%rdx), %edx
	movq	-1904(%rbp), %rcx
	movq	%rcx, -1792(%rbp)
	movq	$2, -1784(%rbp)
	movq	$6, -1776(%rbp)
	movq	$10, -1768(%rbp)
	movq	$14, -1760(%rbp)
	movl	%edx, -4432(%rbp)
	movl	%eax, -4428(%rbp)
	movq	-1784(%rbp), %rax
	leaq	0(,%rax,4), %rdx
	movq	-1792(%rbp), %rax
	addq	%rdx, %rax
	movl	(%rax), %edx
	movq	-1776(%rbp), %rax
	leaq	0(,%rax,4), %rcx
	movq	-1792(%rbp), %rax
	addq	%rcx, %rax
	movl	(%rax), %eax
	leal	(%rdx,%rax), %ecx
	movq	-1784(%rbp), %rax
	leaq	0(,%rax,4), %rdx
	movq	-1792(%rbp), %rax
	addq	%rdx, %rax
	movl	-4432(%rbp), %edx
	addl	%ecx, %edx
	movl	%edx, (%rax)
	movq	-1760(%rbp), %rax
	leaq	0(,%rax,4), %rdx
	movq	-1792(%rbp), %rax
	addq	%rdx, %rax
	movl	(%rax), %edx
	movq	-1784(%rbp), %rax
	leaq	0(,%rax,4), %rcx
	movq	-1792(%rbp), %rax
	addq	%rcx, %rax
	movl	(%rax), %eax
	xorl	%edx, %eax
	movq	-1760(%rbp), %rdx
	leaq	0(,%rdx,4), %rcx
	movq	-1792(%rbp), %rdx
	addq	%rcx, %rdx
	movl	%eax, -4424(%rbp)
	movl	$16, -4420(%rbp)
	movl	-4420(%rbp), %eax
	movl	-4424(%rbp), %esi
	movl	%eax, %ecx
	rorl	%cl, %esi
	movl	%esi, %eax
	movl	%eax, (%rdx)
	movq	-1768(%rbp), %rax
	leaq	0(,%rax,4), %rdx
	movq	-1792(%rbp), %rax
	addq	%rdx, %rax
	movl	(%rax), %ecx
	movq	-1760(%rbp), %rax
	leaq	0(,%rax,4), %rdx
	movq	-1792(%rbp), %rax
	addq	%rdx, %rax
	movl	(%rax), %edx
	movq	-1768(%rbp), %rax
	leaq	0(,%rax,4), %rsi
	movq	-1792(%rbp), %rax
	addq	%rsi, %rax
	addl	%ecx, %edx
	movl	%edx, (%rax)
	movq	-1776(%rbp), %rax
	leaq	0(,%rax,4), %rdx
	movq	-1792(%rbp), %rax
	addq	%rdx, %rax
	movl	(%rax), %edx
	movq	-1768(%rbp), %rax
	leaq	0(,%rax,4), %rcx
	movq	-1792(%rbp), %rax
	addq	%rcx, %rax
	movl	(%rax), %eax
	xorl	%edx, %eax
	movq	-1776(%rbp), %rdx
	leaq	0(,%rdx,4), %rcx
	movq	-1792(%rbp), %rdx
	addq	%rcx, %rdx
	movl	%eax, -4416(%rbp)
	movl	$12, -4412(%rbp)
	movl	-4412(%rbp), %eax
	movl	-4416(%rbp), %esi
	movl	%eax, %ecx
	rorl	%cl, %esi
	movl	%esi, %eax
	movl	%eax, (%rdx)
	movq	-1784(%rbp), %rax
	leaq	0(,%rax,4), %rdx
	movq	-1792(%rbp), %rax
	addq	%rdx, %rax
	movl	(%rax), %edx
	movq	-1776(%rbp), %rax
	leaq	0(,%rax,4), %rcx
	movq	-1792(%rbp), %rax
	addq	%rcx, %rax
	movl	(%rax), %eax
	leal	(%rdx,%rax), %ecx
	movq	-1784(%rbp), %rax
	leaq	0(,%rax,4), %rdx
	movq	-1792(%rbp), %rax
	addq	%rdx, %rax
	movl	-4428(%rbp), %edx
	addl	%ecx, %edx
	movl	%edx, (%rax)
	movq	-1760(%rbp), %rax
	leaq	0(,%rax,4), %rdx
	movq	-1792(%rbp), %rax
	addq	%rdx, %rax
	movl	(%rax), %edx
	movq	-1784(%rbp), %rax
	leaq	0(,%rax,4), %rcx
	movq	-1792(%rbp), %rax
	addq	%rcx, %rax
	movl	(%rax), %eax
	xorl	%edx, %eax
	movq	-1760(%rbp), %rdx
	leaq	0(,%rdx,4), %rcx
	movq	-1792(%rbp), %rdx
	addq	%rcx, %rdx
	movl	%eax, -4408(%rbp)
	movl	$8, -4404(%rbp)
	movl	-4404(%rbp), %eax
	movl	-4408(%rbp), %esi
	movl	%eax, %ecx
	rorl	%cl, %esi
	movl	%esi, %eax
	movl	%eax, (%rdx)
	movq	-1768(%rbp), %rax
	leaq	0(,%rax,4), %rdx
	movq	-1792(%rbp), %rax
	addq	%rdx, %rax
	movl	(%rax), %ecx
	movq	-1760(%rbp), %rax
	leaq	0(,%rax,4), %rdx
	movq	-1792(%rbp), %rax
	addq	%rdx, %rax
	movl	(%rax), %edx
	movq	-1768(%rbp), %rax
	leaq	0(,%rax,4), %rsi
	movq	-1792(%rbp), %rax
	addq	%rsi, %rax
	addl	%ecx, %edx
	movl	%edx, (%rax)
	movq	-1776(%rbp), %rax
	leaq	0(,%rax,4), %rdx
	movq	-1792(%rbp), %rax
	addq	%rdx, %rax
	movl	(%rax), %edx
	movq	-1768(%rbp), %rax
	leaq	0(,%rax,4), %rcx
	movq	-1792(%rbp), %rax
	addq	%rcx, %rax
	movl	(%rax), %eax
	xorl	%edx, %eax
	movq	-1776(%rbp), %rdx
	leaq	0(,%rdx,4), %rcx
	movq	-1792(%rbp), %rdx
	addq	%rcx, %rdx
	movl	%eax, -4400(%rbp)
	movl	$7, -4396(%rbp)
	movl	-4396(%rbp), %eax
	movl	-4400(%rbp), %esi
	movl	%eax, %ecx
	rorl	%cl, %esi
	movl	%esi, %eax
	movl	%eax, (%rdx)
	nop
	movq	-1880(%rbp), %rax
	addq	$7, %rax
	movzbl	(%rax), %eax
	movzbl	%al, %eax
	leaq	0(,%rax,4), %rdx
	movq	-1896(%rbp), %rax
	addq	%rdx, %rax
	movl	(%rax), %eax
	movq	-1880(%rbp), %rdx
	addq	$6, %rdx
	movzbl	(%rdx), %edx
	movzbl	%dl, %edx
	leaq	0(,%rdx,4), %rcx
	movq	-1896(%rbp), %rdx
	addq	%rcx, %rdx
	movl	(%rdx), %edx
	movq	-1904(%rbp), %rcx
	movq	%rcx, -1752(%rbp)
	movq	$3, -1744(%rbp)
	movq	$7, -1736(%rbp)
	movq	$11, -1728(%rbp)
	movq	$15, -1720(%rbp)
	movl	%edx, -4392(%rbp)
	movl	%eax, -4388(%rbp)
	movq	-1744(%rbp), %rax
	leaq	0(,%rax,4), %rdx
	movq	-1752(%rbp), %rax
	addq	%rdx, %rax
	movl	(%rax), %edx
	movq	-1736(%rbp), %rax
	leaq	0(,%rax,4), %rcx
	movq	-1752(%rbp), %rax
	addq	%rcx, %rax
	movl	(%rax), %eax
	leal	(%rdx,%rax), %ecx
	movq	-1744(%rbp), %rax
	leaq	0(,%rax,4), %rdx
	movq	-1752(%rbp), %rax
	addq	%rdx, %rax
	movl	-4392(%rbp), %edx
	addl	%ecx, %edx
	movl	%edx, (%rax)
	movq	-1720(%rbp), %rax
	leaq	0(,%rax,4), %rdx
	movq	-1752(%rbp), %rax
	addq	%rdx, %rax
	movl	(%rax), %edx
	movq	-1744(%rbp), %rax
	leaq	0(,%rax,4), %rcx
	movq	-1752(%rbp), %rax
	addq	%rcx, %rax
	movl	(%rax), %eax
	xorl	%edx, %eax
	movq	-1720(%rbp), %rdx
	leaq	0(,%rdx,4), %rcx
	movq	-1752(%rbp), %rdx
	addq	%rcx, %rdx
	movl	%eax, -4384(%rbp)
	movl	$16, -4380(%rbp)
	movl	-4380(%rbp), %eax
	movl	-4384(%rbp), %esi
	movl	%eax, %ecx
	rorl	%cl, %esi
	movl	%esi, %eax
	movl	%eax, (%rdx)
	movq	-1728(%rbp), %rax
	leaq	0(,%rax,4), %rdx
	movq	-1752(%rbp), %rax
	addq	%rdx, %rax
	movl	(%rax), %ecx
	movq	-1720(%rbp), %rax
	leaq	0(,%rax,4), %rdx
	movq	-1752(%rbp), %rax
	addq	%rdx, %rax
	movl	(%rax), %edx
	movq	-1728(%rbp), %rax
	leaq	0(,%rax,4), %rsi
	movq	-1752(%rbp), %rax
	addq	%rsi, %rax
	addl	%ecx, %edx
	movl	%edx, (%rax)
	movq	-1736(%rbp), %rax
	leaq	0(,%rax,4), %rdx
	movq	-1752(%rbp), %rax
	addq	%rdx, %rax
	movl	(%rax), %edx
	movq	-1728(%rbp), %rax
	leaq	0(,%rax,4), %rcx
	movq	-1752(%rbp), %rax
	addq	%rcx, %rax
	movl	(%rax), %eax
	xorl	%edx, %eax
	movq	-1736(%rbp), %rdx
	leaq	0(,%rdx,4), %rcx
	movq	-1752(%rbp), %rdx
	addq	%rcx, %rdx
	movl	%eax, -4376(%rbp)
	movl	$12, -4372(%rbp)
	movl	-4372(%rbp), %eax
	movl	-4376(%rbp), %esi
	movl	%eax, %ecx
	rorl	%cl, %esi
	movl	%esi, %eax
	movl	%eax, (%rdx)
	movq	-1744(%rbp), %rax
	leaq	0(,%rax,4), %rdx
	movq	-1752(%rbp), %rax
	addq	%rdx, %rax
	movl	(%rax), %edx
	movq	-1736(%rbp), %rax
	leaq	0(,%rax,4), %rcx
	movq	-1752(%rbp), %rax
	addq	%rcx, %rax
	movl	(%rax), %eax
	leal	(%rdx,%rax), %ecx
	movq	-1744(%rbp), %rax
	leaq	0(,%rax,4), %rdx
	movq	-1752(%rbp), %rax
	addq	%rdx, %rax
	movl	-4388(%rbp), %edx
	addl	%ecx, %edx
	movl	%edx, (%rax)
	movq	-1720(%rbp), %rax
	leaq	0(,%rax,4), %rdx
	movq	-1752(%rbp), %rax
	addq	%rdx, %rax
	movl	(%rax), %edx
	movq	-1744(%rbp), %rax
	leaq	0(,%rax,4), %rcx
	movq	-1752(%rbp), %rax
	addq	%rcx, %rax
	movl	(%rax), %eax
	xorl	%edx, %eax
	movq	-1720(%rbp), %rdx
	leaq	0(,%rdx,4), %rcx
	movq	-1752(%rbp), %rdx
	addq	%rcx, %rdx
	movl	%eax, -4368(%rbp)
	movl	$8, -4364(%rbp)
	movl	-4364(%rbp), %eax
	movl	-4368(%rbp), %esi
	movl	%eax, %ecx
	rorl	%cl, %esi
	movl	%esi, %eax
	movl	%eax, (%rdx)
	movq	-1728(%rbp), %rax
	leaq	0(,%rax,4), %rdx
	movq	-1752(%rbp), %rax
	addq	%rdx, %rax
	movl	(%rax), %ecx
	movq	-1720(%rbp), %rax
	leaq	0(,%rax,4), %rdx
	movq	-1752(%rbp), %rax
	addq	%rdx, %rax
	movl	(%rax), %edx
	movq	-1728(%rbp), %rax
	leaq	0(,%rax,4), %rsi
	movq	-1752(%rbp), %rax
	addq	%rsi, %rax
	addl	%ecx, %edx
	movl	%edx, (%rax)
	movq	-1736(%rbp), %rax
	leaq	0(,%rax,4), %rdx
	movq	-1752(%rbp), %rax
	addq	%rdx, %rax
	movl	(%rax), %edx
	movq	-1728(%rbp), %rax
	leaq	0(,%rax,4), %rcx
	movq	-1752(%rbp), %rax
	addq	%rcx, %rax
	movl	(%rax), %eax
	xorl	%edx, %eax
	movq	-1736(%rbp), %rdx
	leaq	0(,%rdx,4), %rcx
	movq	-1752(%rbp), %rdx
	addq	%rcx, %rdx
	movl	%eax, -4360(%rbp)
	movl	$7, -4356(%rbp)
	movl	-4356(%rbp), %eax
	movl	-4360(%rbp), %esi
	movl	%eax, %ecx
	rorl	%cl, %esi
	movl	%esi, %eax
	movl	%eax, (%rdx)
	nop
	movq	-1880(%rbp), %rax
	addq	$9, %rax
	movzbl	(%rax), %eax
	movzbl	%al, %eax
	leaq	0(,%rax,4), %rdx
	movq	-1896(%rbp), %rax
	addq	%rdx, %rax
	movl	(%rax), %eax
	movq	-1880(%rbp), %rdx
	addq	$8, %rdx
	movzbl	(%rdx), %edx
	movzbl	%dl, %edx
	leaq	0(,%rdx,4), %rcx
	movq	-1896(%rbp), %rdx
	addq	%rcx, %rdx
	movl	(%rdx), %edx
	movq	-1904(%rbp), %rcx
	movq	%rcx, -1712(%rbp)
	movq	$0, -1704(%rbp)
	movq	$5, -1696(%rbp)
	movq	$10, -1688(%rbp)
	movq	$15, -1680(%rbp)
	movl	%edx, -4352(%rbp)
	movl	%eax, -4348(%rbp)
	movq	-1704(%rbp), %rax
	leaq	0(,%rax,4), %rdx
	movq	-1712(%rbp), %rax
	addq	%rdx, %rax
	movl	(%rax), %edx
	movq	-1696(%rbp), %rax
	leaq	0(,%rax,4), %rcx
	movq	-1712(%rbp), %rax
	addq	%rcx, %rax
	movl	(%rax), %eax
	leal	(%rdx,%rax), %ecx
	movq	-1704(%rbp), %rax
	leaq	0(,%rax,4), %rdx
	movq	-1712(%rbp), %rax
	addq	%rdx, %rax
	movl	-4352(%rbp), %edx
	addl	%ecx, %edx
	movl	%edx, (%rax)
	movq	-1680(%rbp), %rax
	leaq	0(,%rax,4), %rdx
	movq	-1712(%rbp), %rax
	addq	%rdx, %rax
	movl	(%rax), %edx
	movq	-1704(%rbp), %rax
	leaq	0(,%rax,4), %rcx
	movq	-1712(%rbp), %rax
	addq	%rcx, %rax
	movl	(%rax), %eax
	xorl	%edx, %eax
	movq	-1680(%rbp), %rdx
	leaq	0(,%rdx,4), %rcx
	movq	-1712(%rbp), %rdx
	addq	%rcx, %rdx
	movl	%eax, -4344(%rbp)
	movl	$16, -4340(%rbp)
	movl	-4340(%rbp), %eax
	movl	-4344(%rbp), %esi
	movl	%eax, %ecx
	rorl	%cl, %esi
	movl	%esi, %eax
	movl	%eax, (%rdx)
	movq	-1688(%rbp), %rax
	leaq	0(,%rax,4), %rdx
	movq	-1712(%rbp), %rax
	addq	%rdx, %rax
	movl	(%rax), %ecx
	movq	-1680(%rbp), %rax
	leaq	0(,%rax,4), %rdx
	movq	-1712(%rbp), %rax
	addq	%rdx, %rax
	movl	(%rax), %edx
	movq	-1688(%rbp), %rax
	leaq	0(,%rax,4), %rsi
	movq	-1712(%rbp), %rax
	addq	%rsi, %rax
	addl	%ecx, %edx
	movl	%edx, (%rax)
	movq	-1696(%rbp), %rax
	leaq	0(,%rax,4), %rdx
	movq	-1712(%rbp), %rax
	addq	%rdx, %rax
	movl	(%rax), %edx
	movq	-1688(%rbp), %rax
	leaq	0(,%rax,4), %rcx
	movq	-1712(%rbp), %rax
	addq	%rcx, %rax
	movl	(%rax), %eax
	xorl	%edx, %eax
	movq	-1696(%rbp), %rdx
	leaq	0(,%rdx,4), %rcx
	movq	-1712(%rbp), %rdx
	addq	%rcx, %rdx
	movl	%eax, -4336(%rbp)
	movl	$12, -4332(%rbp)
	movl	-4332(%rbp), %eax
	movl	-4336(%rbp), %esi
	movl	%eax, %ecx
	rorl	%cl, %esi
	movl	%esi, %eax
	movl	%eax, (%rdx)
	movq	-1704(%rbp), %rax
	leaq	0(,%rax,4), %rdx
	movq	-1712(%rbp), %rax
	addq	%rdx, %rax
	movl	(%rax), %edx
	movq	-1696(%rbp), %rax
	leaq	0(,%rax,4), %rcx
	movq	-1712(%rbp), %rax
	addq	%rcx, %rax
	movl	(%rax), %eax
	leal	(%rdx,%rax), %ecx
	movq	-1704(%rbp), %rax
	leaq	0(,%rax,4), %rdx
	movq	-1712(%rbp), %rax
	addq	%rdx, %rax
	movl	-4348(%rbp), %edx
	addl	%ecx, %edx
	movl	%edx, (%rax)
	movq	-1680(%rbp), %rax
	leaq	0(,%rax,4), %rdx
	movq	-1712(%rbp), %rax
	addq	%rdx, %rax
	movl	(%rax), %edx
	movq	-1704(%rbp), %rax
	leaq	0(,%rax,4), %rcx
	movq	-1712(%rbp), %rax
	addq	%rcx, %rax
	movl	(%rax), %eax
	xorl	%edx, %eax
	movq	-1680(%rbp), %rdx
	leaq	0(,%rdx,4), %rcx
	movq	-1712(%rbp), %rdx
	addq	%rcx, %rdx
	movl	%eax, -4328(%rbp)
	movl	$8, -4324(%rbp)
	movl	-4324(%rbp), %eax
	movl	-4328(%rbp), %esi
	movl	%eax, %ecx
	rorl	%cl, %esi
	movl	%esi, %eax
	movl	%eax, (%rdx)
	movq	-1688(%rbp), %rax
	leaq	0(,%rax,4), %rdx
	movq	-1712(%rbp), %rax
	addq	%rdx, %rax
	movl	(%rax), %ecx
	movq	-1680(%rbp), %rax
	leaq	0(,%rax,4), %rdx
	movq	-1712(%rbp), %rax
	addq	%rdx, %rax
	movl	(%rax), %edx
	movq	-1688(%rbp), %rax
	leaq	0(,%rax,4), %rsi
	movq	-1712(%rbp), %rax
	addq	%rsi, %rax
	addl	%ecx, %edx
	movl	%edx, (%rax)
	movq	-1696(%rbp), %rax
	leaq	0(,%rax,4), %rdx
	movq	-1712(%rbp), %rax
	addq	%rdx, %rax
	movl	(%rax), %edx
	movq	-1688(%rbp), %rax
	leaq	0(,%rax,4), %rcx
	movq	-1712(%rbp), %rax
	addq	%rcx, %rax
	movl	(%rax), %eax
	xorl	%edx, %eax
	movq	-1696(%rbp), %rdx
	leaq	0(,%rdx,4), %rcx
	movq	-1712(%rbp), %rdx
	addq	%rcx, %rdx
	movl	%eax, -4320(%rbp)
	movl	$7, -4316(%rbp)
	movl	-4316(%rbp), %eax
	movl	-4320(%rbp), %esi
	movl	%eax, %ecx
	rorl	%cl, %esi
	movl	%esi, %eax
	movl	%eax, (%rdx)
	nop
	movq	-1880(%rbp), %rax
	addq	$11, %rax
	movzbl	(%rax), %eax
	movzbl	%al, %eax
	leaq	0(,%rax,4), %rdx
	movq	-1896(%rbp), %rax
	addq	%rdx, %rax
	movl	(%rax), %eax
	movq	-1880(%rbp), %rdx
	addq	$10, %rdx
	movzbl	(%rdx), %edx
	movzbl	%dl, %edx
	leaq	0(,%rdx,4), %rcx
	movq	-1896(%rbp), %rdx
	addq	%rcx, %rdx
	movl	(%rdx), %edx
	movq	-1904(%rbp), %rcx
	movq	%rcx, -1672(%rbp)
	movq	$1, -1664(%rbp)
	movq	$6, -1656(%rbp)
	movq	$11, -1648(%rbp)
	movq	$12, -1640(%rbp)
	movl	%edx, -4312(%rbp)
	movl	%eax, -4308(%rbp)
	movq	-1664(%rbp), %rax
	leaq	0(,%rax,4), %rdx
	movq	-1672(%rbp), %rax
	addq	%rdx, %rax
	movl	(%rax), %edx
	movq	-1656(%rbp), %rax
	leaq	0(,%rax,4), %rcx
	movq	-1672(%rbp), %rax
	addq	%rcx, %rax
	movl	(%rax), %eax
	leal	(%rdx,%rax), %ecx
	movq	-1664(%rbp), %rax
	leaq	0(,%rax,4), %rdx
	movq	-1672(%rbp), %rax
	addq	%rdx, %rax
	movl	-4312(%rbp), %edx
	addl	%ecx, %edx
	movl	%edx, (%rax)
	movq	-1640(%rbp), %rax
	leaq	0(,%rax,4), %rdx
	movq	-1672(%rbp), %rax
	addq	%rdx, %rax
	movl	(%rax), %edx
	movq	-1664(%rbp), %rax
	leaq	0(,%rax,4), %rcx
	movq	-1672(%rbp), %rax
	addq	%rcx, %rax
	movl	(%rax), %eax
	xorl	%edx, %eax
	movq	-1640(%rbp), %rdx
	leaq	0(,%rdx,4), %rcx
	movq	-1672(%rbp), %rdx
	addq	%rcx, %rdx
	movl	%eax, -4304(%rbp)
	movl	$16, -4300(%rbp)
	movl	-4300(%rbp), %eax
	movl	-4304(%rbp), %esi
	movl	%eax, %ecx
	rorl	%cl, %esi
	movl	%esi, %eax
	movl	%eax, (%rdx)
	movq	-1648(%rbp), %rax
	leaq	0(,%rax,4), %rdx
	movq	-1672(%rbp), %rax
	addq	%rdx, %rax
	movl	(%rax), %ecx
	movq	-1640(%rbp), %rax
	leaq	0(,%rax,4), %rdx
	movq	-1672(%rbp), %rax
	addq	%rdx, %rax
	movl	(%rax), %edx
	movq	-1648(%rbp), %rax
	leaq	0(,%rax,4), %rsi
	movq	-1672(%rbp), %rax
	addq	%rsi, %rax
	addl	%ecx, %edx
	movl	%edx, (%rax)
	movq	-1656(%rbp), %rax
	leaq	0(,%rax,4), %rdx
	movq	-1672(%rbp), %rax
	addq	%rdx, %rax
	movl	(%rax), %edx
	movq	-1648(%rbp), %rax
	leaq	0(,%rax,4), %rcx
	movq	-1672(%rbp), %rax
	addq	%rcx, %rax
	movl	(%rax), %eax
	xorl	%edx, %eax
	movq	-1656(%rbp), %rdx
	leaq	0(,%rdx,4), %rcx
	movq	-1672(%rbp), %rdx
	addq	%rcx, %rdx
	movl	%eax, -4296(%rbp)
	movl	$12, -4292(%rbp)
	movl	-4292(%rbp), %eax
	movl	-4296(%rbp), %esi
	movl	%eax, %ecx
	rorl	%cl, %esi
	movl	%esi, %eax
	movl	%eax, (%rdx)
	movq	-1664(%rbp), %rax
	leaq	0(,%rax,4), %rdx
	movq	-1672(%rbp), %rax
	addq	%rdx, %rax
	movl	(%rax), %edx
	movq	-1656(%rbp), %rax
	leaq	0(,%rax,4), %rcx
	movq	-1672(%rbp), %rax
	addq	%rcx, %rax
	movl	(%rax), %eax
	leal	(%rdx,%rax), %ecx
	movq	-1664(%rbp), %rax
	leaq	0(,%rax,4), %rdx
	movq	-1672(%rbp), %rax
	addq	%rdx, %rax
	movl	-4308(%rbp), %edx
	addl	%ecx, %edx
	movl	%edx, (%rax)
	movq	-1640(%rbp), %rax
	leaq	0(,%rax,4), %rdx
	movq	-1672(%rbp), %rax
	addq	%rdx, %rax
	movl	(%rax), %edx
	movq	-1664(%rbp), %rax
	leaq	0(,%rax,4), %rcx
	movq	-1672(%rbp), %rax
	addq	%rcx, %rax
	movl	(%rax), %eax
	xorl	%edx, %eax
	movq	-1640(%rbp), %rdx
	leaq	0(,%rdx,4), %rcx
	movq	-1672(%rbp), %rdx
	addq	%rcx, %rdx
	movl	%eax, -4288(%rbp)
	movl	$8, -4284(%rbp)
	movl	-4284(%rbp), %eax
	movl	-4288(%rbp), %esi
	movl	%eax, %ecx
	rorl	%cl, %esi
	movl	%esi, %eax
	movl	%eax, (%rdx)
	movq	-1648(%rbp), %rax
	leaq	0(,%rax,4), %rdx
	movq	-1672(%rbp), %rax
	addq	%rdx, %rax
	movl	(%rax), %ecx
	movq	-1640(%rbp), %rax
	leaq	0(,%rax,4), %rdx
	movq	-1672(%rbp), %rax
	addq	%rdx, %rax
	movl	(%rax), %edx
	movq	-1648(%rbp), %rax
	leaq	0(,%rax,4), %rsi
	movq	-1672(%rbp), %rax
	addq	%rsi, %rax
	addl	%ecx, %edx
	movl	%edx, (%rax)
	movq	-1656(%rbp), %rax
	leaq	0(,%rax,4), %rdx
	movq	-1672(%rbp), %rax
	addq	%rdx, %rax
	movl	(%rax), %edx
	movq	-1648(%rbp), %rax
	leaq	0(,%rax,4), %rcx
	movq	-1672(%rbp), %rax
	addq	%rcx, %rax
	movl	(%rax), %eax
	xorl	%edx, %eax
	movq	-1656(%rbp), %rdx
	leaq	0(,%rdx,4), %rcx
	movq	-1672(%rbp), %rdx
	addq	%rcx, %rdx
	movl	%eax, -4280(%rbp)
	movl	$7, -4276(%rbp)
	movl	-4276(%rbp), %eax
	movl	-4280(%rbp), %esi
	movl	%eax, %ecx
	rorl	%cl, %esi
	movl	%esi, %eax
	movl	%eax, (%rdx)
	nop
	movq	-1880(%rbp), %rax
	addq	$13, %rax
	movzbl	(%rax), %eax
	movzbl	%al, %eax
	leaq	0(,%rax,4), %rdx
	movq	-1896(%rbp), %rax
	addq	%rdx, %rax
	movl	(%rax), %eax
	movq	-1880(%rbp), %rdx
	addq	$12, %rdx
	movzbl	(%rdx), %edx
	movzbl	%dl, %edx
	leaq	0(,%rdx,4), %rcx
	movq	-1896(%rbp), %rdx
	addq	%rcx, %rdx
	movl	(%rdx), %edx
	movq	-1904(%rbp), %rcx
	movq	%rcx, -1632(%rbp)
	movq	$2, -1624(%rbp)
	movq	$7, -1616(%rbp)
	movq	$8, -1608(%rbp)
	movq	$13, -1600(%rbp)
	movl	%edx, -4272(%rbp)
	movl	%eax, -4268(%rbp)
	movq	-1624(%rbp), %rax
	leaq	0(,%rax,4), %rdx
	movq	-1632(%rbp), %rax
	addq	%rdx, %rax
	movl	(%rax), %edx
	movq	-1616(%rbp), %rax
	leaq	0(,%rax,4), %rcx
	movq	-1632(%rbp), %rax
	addq	%rcx, %rax
	movl	(%rax), %eax
	leal	(%rdx,%rax), %ecx
	movq	-1624(%rbp), %rax
	leaq	0(,%rax,4), %rdx
	movq	-1632(%rbp), %rax
	addq	%rdx, %rax
	movl	-4272(%rbp), %edx
	addl	%ecx, %edx
	movl	%edx, (%rax)
	movq	-1600(%rbp), %rax
	leaq	0(,%rax,4), %rdx
	movq	-1632(%rbp), %rax
	addq	%rdx, %rax
	movl	(%rax), %edx
	movq	-1624(%rbp), %rax
	leaq	0(,%rax,4), %rcx
	movq	-1632(%rbp), %rax
	addq	%rcx, %rax
	movl	(%rax), %eax
	xorl	%edx, %eax
	movq	-1600(%rbp), %rdx
	leaq	0(,%rdx,4), %rcx
	movq	-1632(%rbp), %rdx
	addq	%rcx, %rdx
	movl	%eax, -4264(%rbp)
	movl	$16, -4260(%rbp)
	movl	-4260(%rbp), %eax
	movl	-4264(%rbp), %esi
	movl	%eax, %ecx
	rorl	%cl, %esi
	movl	%esi, %eax
	movl	%eax, (%rdx)
	movq	-1608(%rbp), %rax
	leaq	0(,%rax,4), %rdx
	movq	-1632(%rbp), %rax
	addq	%rdx, %rax
	movl	(%rax), %ecx
	movq	-1600(%rbp), %rax
	leaq	0(,%rax,4), %rdx
	movq	-1632(%rbp), %rax
	addq	%rdx, %rax
	movl	(%rax), %edx
	movq	-1608(%rbp), %rax
	leaq	0(,%rax,4), %rsi
	movq	-1632(%rbp), %rax
	addq	%rsi, %rax
	addl	%ecx, %edx
	movl	%edx, (%rax)
	movq	-1616(%rbp), %rax
	leaq	0(,%rax,4), %rdx
	movq	-1632(%rbp), %rax
	addq	%rdx, %rax
	movl	(%rax), %edx
	movq	-1608(%rbp), %rax
	leaq	0(,%rax,4), %rcx
	movq	-1632(%rbp), %rax
	addq	%rcx, %rax
	movl	(%rax), %eax
	xorl	%edx, %eax
	movq	-1616(%rbp), %rdx
	leaq	0(,%rdx,4), %rcx
	movq	-1632(%rbp), %rdx
	addq	%rcx, %rdx
	movl	%eax, -4256(%rbp)
	movl	$12, -4252(%rbp)
	movl	-4252(%rbp), %eax
	movl	-4256(%rbp), %esi
	movl	%eax, %ecx
	rorl	%cl, %esi
	movl	%esi, %eax
	movl	%eax, (%rdx)
	movq	-1624(%rbp), %rax
	leaq	0(,%rax,4), %rdx
	movq	-1632(%rbp), %rax
	addq	%rdx, %rax
	movl	(%rax), %edx
	movq	-1616(%rbp), %rax
	leaq	0(,%rax,4), %rcx
	movq	-1632(%rbp), %rax
	addq	%rcx, %rax
	movl	(%rax), %eax
	leal	(%rdx,%rax), %ecx
	movq	-1624(%rbp), %rax
	leaq	0(,%rax,4), %rdx
	movq	-1632(%rbp), %rax
	addq	%rdx, %rax
	movl	-4268(%rbp), %edx
	addl	%ecx, %edx
	movl	%edx, (%rax)
	movq	-1600(%rbp), %rax
	leaq	0(,%rax,4), %rdx
	movq	-1632(%rbp), %rax
	addq	%rdx, %rax
	movl	(%rax), %edx
	movq	-1624(%rbp), %rax
	leaq	0(,%rax,4), %rcx
	movq	-1632(%rbp), %rax
	addq	%rcx, %rax
	movl	(%rax), %eax
	xorl	%edx, %eax
	movq	-1600(%rbp), %rdx
	leaq	0(,%rdx,4), %rcx
	movq	-1632(%rbp), %rdx
	addq	%rcx, %rdx
	movl	%eax, -4248(%rbp)
	movl	$8, -4244(%rbp)
	movl	-4244(%rbp), %eax
	movl	-4248(%rbp), %esi
	movl	%eax, %ecx
	rorl	%cl, %esi
	movl	%esi, %eax
	movl	%eax, (%rdx)
	movq	-1608(%rbp), %rax
	leaq	0(,%rax,4), %rdx
	movq	-1632(%rbp), %rax
	addq	%rdx, %rax
	movl	(%rax), %ecx
	movq	-1600(%rbp), %rax
	leaq	0(,%rax,4), %rdx
	movq	-1632(%rbp), %rax
	addq	%rdx, %rax
	movl	(%rax), %edx
	movq	-1608(%rbp), %rax
	leaq	0(,%rax,4), %rsi
	movq	-1632(%rbp), %rax
	addq	%rsi, %rax
	addl	%ecx, %edx
	movl	%edx, (%rax)
	movq	-1616(%rbp), %rax
	leaq	0(,%rax,4), %rdx
	movq	-1632(%rbp), %rax
	addq	%rdx, %rax
	movl	(%rax), %edx
	movq	-1608(%rbp), %rax
	leaq	0(,%rax,4), %rcx
	movq	-1632(%rbp), %rax
	addq	%rcx, %rax
	movl	(%rax), %eax
	xorl	%edx, %eax
	movq	-1616(%rbp), %rdx
	leaq	0(,%rdx,4), %rcx
	movq	-1632(%rbp), %rdx
	addq	%rcx, %rdx
	movl	%eax, -4240(%rbp)
	movl	$7, -4236(%rbp)
	movl	-4236(%rbp), %eax
	movl	-4240(%rbp), %esi
	movl	%eax, %ecx
	rorl	%cl, %esi
	movl	%esi, %eax
	movl	%eax, (%rdx)
	nop
	movq	-1880(%rbp), %rax
	addq	$15, %rax
	movzbl	(%rax), %eax
	movzbl	%al, %eax
	leaq	0(,%rax,4), %rdx
	movq	-1896(%rbp), %rax
	addq	%rdx, %rax
	movl	(%rax), %eax
	movq	-1880(%rbp), %rdx
	addq	$14, %rdx
	movzbl	(%rdx), %edx
	movzbl	%dl, %edx
	leaq	0(,%rdx,4), %rcx
	movq	-1896(%rbp), %rdx
	addq	%rcx, %rdx
	movl	(%rdx), %edx
	movq	-1904(%rbp), %rcx
	movq	%rcx, -1592(%rbp)
	movq	$3, -1584(%rbp)
	movq	$4, -1576(%rbp)
	movq	$9, -1568(%rbp)
	movq	$14, -1560(%rbp)
	movl	%edx, -4232(%rbp)
	movl	%eax, -4228(%rbp)
	movq	-1584(%rbp), %rax
	leaq	0(,%rax,4), %rdx
	movq	-1592(%rbp), %rax
	addq	%rdx, %rax
	movl	(%rax), %edx
	movq	-1576(%rbp), %rax
	leaq	0(,%rax,4), %rcx
	movq	-1592(%rbp), %rax
	addq	%rcx, %rax
	movl	(%rax), %eax
	leal	(%rdx,%rax), %ecx
	movq	-1584(%rbp), %rax
	leaq	0(,%rax,4), %rdx
	movq	-1592(%rbp), %rax
	addq	%rdx, %rax
	movl	-4232(%rbp), %edx
	addl	%ecx, %edx
	movl	%edx, (%rax)
	movq	-1560(%rbp), %rax
	leaq	0(,%rax,4), %rdx
	movq	-1592(%rbp), %rax
	addq	%rdx, %rax
	movl	(%rax), %edx
	movq	-1584(%rbp), %rax
	leaq	0(,%rax,4), %rcx
	movq	-1592(%rbp), %rax
	addq	%rcx, %rax
	movl	(%rax), %eax
	xorl	%edx, %eax
	movq	-1560(%rbp), %rdx
	leaq	0(,%rdx,4), %rcx
	movq	-1592(%rbp), %rdx
	addq	%rcx, %rdx
	movl	%eax, -4224(%rbp)
	movl	$16, -4220(%rbp)
	movl	-4220(%rbp), %eax
	movl	-4224(%rbp), %esi
	movl	%eax, %ecx
	rorl	%cl, %esi
	movl	%esi, %eax
	movl	%eax, (%rdx)
	movq	-1568(%rbp), %rax
	leaq	0(,%rax,4), %rdx
	movq	-1592(%rbp), %rax
	addq	%rdx, %rax
	movl	(%rax), %ecx
	movq	-1560(%rbp), %rax
	leaq	0(,%rax,4), %rdx
	movq	-1592(%rbp), %rax
	addq	%rdx, %rax
	movl	(%rax), %edx
	movq	-1568(%rbp), %rax
	leaq	0(,%rax,4), %rsi
	movq	-1592(%rbp), %rax
	addq	%rsi, %rax
	addl	%ecx, %edx
	movl	%edx, (%rax)
	movq	-1576(%rbp), %rax
	leaq	0(,%rax,4), %rdx
	movq	-1592(%rbp), %rax
	addq	%rdx, %rax
	movl	(%rax), %edx
	movq	-1568(%rbp), %rax
	leaq	0(,%rax,4), %rcx
	movq	-1592(%rbp), %rax
	addq	%rcx, %rax
	movl	(%rax), %eax
	xorl	%edx, %eax
	movq	-1576(%rbp), %rdx
	leaq	0(,%rdx,4), %rcx
	movq	-1592(%rbp), %rdx
	addq	%rcx, %rdx
	movl	%eax, -4216(%rbp)
	movl	$12, -4212(%rbp)
	movl	-4212(%rbp), %eax
	movl	-4216(%rbp), %esi
	movl	%eax, %ecx
	rorl	%cl, %esi
	movl	%esi, %eax
	movl	%eax, (%rdx)
	movq	-1584(%rbp), %rax
	leaq	0(,%rax,4), %rdx
	movq	-1592(%rbp), %rax
	addq	%rdx, %rax
	movl	(%rax), %edx
	movq	-1576(%rbp), %rax
	leaq	0(,%rax,4), %rcx
	movq	-1592(%rbp), %rax
	addq	%rcx, %rax
	movl	(%rax), %eax
	leal	(%rdx,%rax), %ecx
	movq	-1584(%rbp), %rax
	leaq	0(,%rax,4), %rdx
	movq	-1592(%rbp), %rax
	addq	%rdx, %rax
	movl	-4228(%rbp), %edx
	addl	%ecx, %edx
	movl	%edx, (%rax)
	movq	-1560(%rbp), %rax
	leaq	0(,%rax,4), %rdx
	movq	-1592(%rbp), %rax
	addq	%rdx, %rax
	movl	(%rax), %edx
	movq	-1584(%rbp), %rax
	leaq	0(,%rax,4), %rcx
	movq	-1592(%rbp), %rax
	addq	%rcx, %rax
	movl	(%rax), %eax
	xorl	%edx, %eax
	movq	-1560(%rbp), %rdx
	leaq	0(,%rdx,4), %rcx
	movq	-1592(%rbp), %rdx
	addq	%rcx, %rdx
	movl	%eax, -4208(%rbp)
	movl	$8, -4204(%rbp)
	movl	-4204(%rbp), %eax
	movl	-4208(%rbp), %esi
	movl	%eax, %ecx
	rorl	%cl, %esi
	movl	%esi, %eax
	movl	%eax, (%rdx)
	movq	-1568(%rbp), %rax
	leaq	0(,%rax,4), %rdx
	movq	-1592(%rbp), %rax
	addq	%rdx, %rax
	movl	(%rax), %ecx
	movq	-1560(%rbp), %rax
	leaq	0(,%rax,4), %rdx
	movq	-1592(%rbp), %rax
	addq	%rdx, %rax
	movl	(%rax), %edx
	movq	-1568(%rbp), %rax
	leaq	0(,%rax,4), %rsi
	movq	-1592(%rbp), %rax
	addq	%rsi, %rax
	addl	%ecx, %edx
	movl	%edx, (%rax)
	movq	-1576(%rbp), %rax
	leaq	0(,%rax,4), %rdx
	movq	-1592(%rbp), %rax
	addq	%rdx, %rax
	movl	(%rax), %edx
	movq	-1568(%rbp), %rax
	leaq	0(,%rax,4), %rcx
	movq	-1592(%rbp), %rax
	addq	%rcx, %rax
	movl	(%rax), %eax
	xorl	%edx, %eax
	movq	-1576(%rbp), %rdx
	leaq	0(,%rdx,4), %rcx
	movq	-1592(%rbp), %rdx
	addq	%rcx, %rdx
	movl	%eax, -4200(%rbp)
	movl	$7, -4196(%rbp)
	movl	-4196(%rbp), %eax
	movl	-4200(%rbp), %esi
	movl	%eax, %ecx
	rorl	%cl, %esi
	movl	%esi, %eax
	movl	%eax, (%rdx)
	nop
	nop
	movq	-2912(%rbp), %rax
	movq	%rax, -1552(%rbp)
	leaq	-80(%rbp), %rax
	movq	%rax, -1544(%rbp)
	movq	$3, -1536(%rbp)
	movq	-1536(%rbp), %rax
	salq	$4, %rax
	movq	%rax, %rdx
	leaq	MSG_SCHEDULE(%rip), %rax
	addq	%rdx, %rax
	movq	%rax, -1528(%rbp)
	movq	-1528(%rbp), %rax
	addq	$1, %rax
	movzbl	(%rax), %eax
	movzbl	%al, %eax
	leaq	0(,%rax,4), %rdx
	movq	-1544(%rbp), %rax
	addq	%rdx, %rax
	movl	(%rax), %eax
	movq	-1528(%rbp), %rdx
	movzbl	(%rdx), %edx
	movzbl	%dl, %edx
	leaq	0(,%rdx,4), %rcx
	movq	-1544(%rbp), %rdx
	addq	%rcx, %rdx
	movl	(%rdx), %edx
	movq	-1552(%rbp), %rcx
	movq	%rcx, -1520(%rbp)
	movq	$0, -1512(%rbp)
	movq	$4, -1504(%rbp)
	movq	$8, -1496(%rbp)
	movq	$12, -1488(%rbp)
	movl	%edx, -4192(%rbp)
	movl	%eax, -4188(%rbp)
	movq	-1512(%rbp), %rax
	leaq	0(,%rax,4), %rdx
	movq	-1520(%rbp), %rax
	addq	%rdx, %rax
	movl	(%rax), %edx
	movq	-1504(%rbp), %rax
	leaq	0(,%rax,4), %rcx
	movq	-1520(%rbp), %rax
	addq	%rcx, %rax
	movl	(%rax), %eax
	leal	(%rdx,%rax), %ecx
	movq	-1512(%rbp), %rax
	leaq	0(,%rax,4), %rdx
	movq	-1520(%rbp), %rax
	addq	%rdx, %rax
	movl	-4192(%rbp), %edx
	addl	%ecx, %edx
	movl	%edx, (%rax)
	movq	-1488(%rbp), %rax
	leaq	0(,%rax,4), %rdx
	movq	-1520(%rbp), %rax
	addq	%rdx, %rax
	movl	(%rax), %edx
	movq	-1512(%rbp), %rax
	leaq	0(,%rax,4), %rcx
	movq	-1520(%rbp), %rax
	addq	%rcx, %rax
	movl	(%rax), %eax
	xorl	%edx, %eax
	movq	-1488(%rbp), %rdx
	leaq	0(,%rdx,4), %rcx
	movq	-1520(%rbp), %rdx
	addq	%rcx, %rdx
	movl	%eax, -4184(%rbp)
	movl	$16, -4180(%rbp)
	movl	-4180(%rbp), %eax
	movl	-4184(%rbp), %esi
	movl	%eax, %ecx
	rorl	%cl, %esi
	movl	%esi, %eax
	movl	%eax, (%rdx)
	movq	-1496(%rbp), %rax
	leaq	0(,%rax,4), %rdx
	movq	-1520(%rbp), %rax
	addq	%rdx, %rax
	movl	(%rax), %ecx
	movq	-1488(%rbp), %rax
	leaq	0(,%rax,4), %rdx
	movq	-1520(%rbp), %rax
	addq	%rdx, %rax
	movl	(%rax), %edx
	movq	-1496(%rbp), %rax
	leaq	0(,%rax,4), %rsi
	movq	-1520(%rbp), %rax
	addq	%rsi, %rax
	addl	%ecx, %edx
	movl	%edx, (%rax)
	movq	-1504(%rbp), %rax
	leaq	0(,%rax,4), %rdx
	movq	-1520(%rbp), %rax
	addq	%rdx, %rax
	movl	(%rax), %edx
	movq	-1496(%rbp), %rax
	leaq	0(,%rax,4), %rcx
	movq	-1520(%rbp), %rax
	addq	%rcx, %rax
	movl	(%rax), %eax
	xorl	%edx, %eax
	movq	-1504(%rbp), %rdx
	leaq	0(,%rdx,4), %rcx
	movq	-1520(%rbp), %rdx
	addq	%rcx, %rdx
	movl	%eax, -4176(%rbp)
	movl	$12, -4172(%rbp)
	movl	-4172(%rbp), %eax
	movl	-4176(%rbp), %esi
	movl	%eax, %ecx
	rorl	%cl, %esi
	movl	%esi, %eax
	movl	%eax, (%rdx)
	movq	-1512(%rbp), %rax
	leaq	0(,%rax,4), %rdx
	movq	-1520(%rbp), %rax
	addq	%rdx, %rax
	movl	(%rax), %edx
	movq	-1504(%rbp), %rax
	leaq	0(,%rax,4), %rcx
	movq	-1520(%rbp), %rax
	addq	%rcx, %rax
	movl	(%rax), %eax
	leal	(%rdx,%rax), %ecx
	movq	-1512(%rbp), %rax
	leaq	0(,%rax,4), %rdx
	movq	-1520(%rbp), %rax
	addq	%rdx, %rax
	movl	-4188(%rbp), %edx
	addl	%ecx, %edx
	movl	%edx, (%rax)
	movq	-1488(%rbp), %rax
	leaq	0(,%rax,4), %rdx
	movq	-1520(%rbp), %rax
	addq	%rdx, %rax
	movl	(%rax), %edx
	movq	-1512(%rbp), %rax
	leaq	0(,%rax,4), %rcx
	movq	-1520(%rbp), %rax
	addq	%rcx, %rax
	movl	(%rax), %eax
	xorl	%edx, %eax
	movq	-1488(%rbp), %rdx
	leaq	0(,%rdx,4), %rcx
	movq	-1520(%rbp), %rdx
	addq	%rcx, %rdx
	movl	%eax, -4168(%rbp)
	movl	$8, -4164(%rbp)
	movl	-4164(%rbp), %eax
	movl	-4168(%rbp), %esi
	movl	%eax, %ecx
	rorl	%cl, %esi
	movl	%esi, %eax
	movl	%eax, (%rdx)
	movq	-1496(%rbp), %rax
	leaq	0(,%rax,4), %rdx
	movq	-1520(%rbp), %rax
	addq	%rdx, %rax
	movl	(%rax), %ecx
	movq	-1488(%rbp), %rax
	leaq	0(,%rax,4), %rdx
	movq	-1520(%rbp), %rax
	addq	%rdx, %rax
	movl	(%rax), %edx
	movq	-1496(%rbp), %rax
	leaq	0(,%rax,4), %rsi
	movq	-1520(%rbp), %rax
	addq	%rsi, %rax
	addl	%ecx, %edx
	movl	%edx, (%rax)
	movq	-1504(%rbp), %rax
	leaq	0(,%rax,4), %rdx
	movq	-1520(%rbp), %rax
	addq	%rdx, %rax
	movl	(%rax), %edx
	movq	-1496(%rbp), %rax
	leaq	0(,%rax,4), %rcx
	movq	-1520(%rbp), %rax
	addq	%rcx, %rax
	movl	(%rax), %eax
	xorl	%edx, %eax
	movq	-1504(%rbp), %rdx
	leaq	0(,%rdx,4), %rcx
	movq	-1520(%rbp), %rdx
	addq	%rcx, %rdx
	movl	%eax, -4160(%rbp)
	movl	$7, -4156(%rbp)
	movl	-4156(%rbp), %eax
	movl	-4160(%rbp), %esi
	movl	%eax, %ecx
	rorl	%cl, %esi
	movl	%esi, %eax
	movl	%eax, (%rdx)
	nop
	movq	-1528(%rbp), %rax
	addq	$3, %rax
	movzbl	(%rax), %eax
	movzbl	%al, %eax
	leaq	0(,%rax,4), %rdx
	movq	-1544(%rbp), %rax
	addq	%rdx, %rax
	movl	(%rax), %eax
	movq	-1528(%rbp), %rdx
	addq	$2, %rdx
	movzbl	(%rdx), %edx
	movzbl	%dl, %edx
	leaq	0(,%rdx,4), %rcx
	movq	-1544(%rbp), %rdx
	addq	%rcx, %rdx
	movl	(%rdx), %edx
	movq	-1552(%rbp), %rcx
	movq	%rcx, -1480(%rbp)
	movq	$1, -1472(%rbp)
	movq	$5, -1464(%rbp)
	movq	$9, -1456(%rbp)
	movq	$13, -1448(%rbp)
	movl	%edx, -4152(%rbp)
	movl	%eax, -4148(%rbp)
	movq	-1472(%rbp), %rax
	leaq	0(,%rax,4), %rdx
	movq	-1480(%rbp), %rax
	addq	%rdx, %rax
	movl	(%rax), %edx
	movq	-1464(%rbp), %rax
	leaq	0(,%rax,4), %rcx
	movq	-1480(%rbp), %rax
	addq	%rcx, %rax
	movl	(%rax), %eax
	leal	(%rdx,%rax), %ecx
	movq	-1472(%rbp), %rax
	leaq	0(,%rax,4), %rdx
	movq	-1480(%rbp), %rax
	addq	%rdx, %rax
	movl	-4152(%rbp), %edx
	addl	%ecx, %edx
	movl	%edx, (%rax)
	movq	-1448(%rbp), %rax
	leaq	0(,%rax,4), %rdx
	movq	-1480(%rbp), %rax
	addq	%rdx, %rax
	movl	(%rax), %edx
	movq	-1472(%rbp), %rax
	leaq	0(,%rax,4), %rcx
	movq	-1480(%rbp), %rax
	addq	%rcx, %rax
	movl	(%rax), %eax
	xorl	%edx, %eax
	movq	-1448(%rbp), %rdx
	leaq	0(,%rdx,4), %rcx
	movq	-1480(%rbp), %rdx
	addq	%rcx, %rdx
	movl	%eax, -4144(%rbp)
	movl	$16, -4140(%rbp)
	movl	-4140(%rbp), %eax
	movl	-4144(%rbp), %esi
	movl	%eax, %ecx
	rorl	%cl, %esi
	movl	%esi, %eax
	movl	%eax, (%rdx)
	movq	-1456(%rbp), %rax
	leaq	0(,%rax,4), %rdx
	movq	-1480(%rbp), %rax
	addq	%rdx, %rax
	movl	(%rax), %ecx
	movq	-1448(%rbp), %rax
	leaq	0(,%rax,4), %rdx
	movq	-1480(%rbp), %rax
	addq	%rdx, %rax
	movl	(%rax), %edx
	movq	-1456(%rbp), %rax
	leaq	0(,%rax,4), %rsi
	movq	-1480(%rbp), %rax
	addq	%rsi, %rax
	addl	%ecx, %edx
	movl	%edx, (%rax)
	movq	-1464(%rbp), %rax
	leaq	0(,%rax,4), %rdx
	movq	-1480(%rbp), %rax
	addq	%rdx, %rax
	movl	(%rax), %edx
	movq	-1456(%rbp), %rax
	leaq	0(,%rax,4), %rcx
	movq	-1480(%rbp), %rax
	addq	%rcx, %rax
	movl	(%rax), %eax
	xorl	%edx, %eax
	movq	-1464(%rbp), %rdx
	leaq	0(,%rdx,4), %rcx
	movq	-1480(%rbp), %rdx
	addq	%rcx, %rdx
	movl	%eax, -4136(%rbp)
	movl	$12, -4132(%rbp)
	movl	-4132(%rbp), %eax
	movl	-4136(%rbp), %esi
	movl	%eax, %ecx
	rorl	%cl, %esi
	movl	%esi, %eax
	movl	%eax, (%rdx)
	movq	-1472(%rbp), %rax
	leaq	0(,%rax,4), %rdx
	movq	-1480(%rbp), %rax
	addq	%rdx, %rax
	movl	(%rax), %edx
	movq	-1464(%rbp), %rax
	leaq	0(,%rax,4), %rcx
	movq	-1480(%rbp), %rax
	addq	%rcx, %rax
	movl	(%rax), %eax
	leal	(%rdx,%rax), %ecx
	movq	-1472(%rbp), %rax
	leaq	0(,%rax,4), %rdx
	movq	-1480(%rbp), %rax
	addq	%rdx, %rax
	movl	-4148(%rbp), %edx
	addl	%ecx, %edx
	movl	%edx, (%rax)
	movq	-1448(%rbp), %rax
	leaq	0(,%rax,4), %rdx
	movq	-1480(%rbp), %rax
	addq	%rdx, %rax
	movl	(%rax), %edx
	movq	-1472(%rbp), %rax
	leaq	0(,%rax,4), %rcx
	movq	-1480(%rbp), %rax
	addq	%rcx, %rax
	movl	(%rax), %eax
	xorl	%edx, %eax
	movq	-1448(%rbp), %rdx
	leaq	0(,%rdx,4), %rcx
	movq	-1480(%rbp), %rdx
	addq	%rcx, %rdx
	movl	%eax, -4128(%rbp)
	movl	$8, -4124(%rbp)
	movl	-4124(%rbp), %eax
	movl	-4128(%rbp), %esi
	movl	%eax, %ecx
	rorl	%cl, %esi
	movl	%esi, %eax
	movl	%eax, (%rdx)
	movq	-1456(%rbp), %rax
	leaq	0(,%rax,4), %rdx
	movq	-1480(%rbp), %rax
	addq	%rdx, %rax
	movl	(%rax), %ecx
	movq	-1448(%rbp), %rax
	leaq	0(,%rax,4), %rdx
	movq	-1480(%rbp), %rax
	addq	%rdx, %rax
	movl	(%rax), %edx
	movq	-1456(%rbp), %rax
	leaq	0(,%rax,4), %rsi
	movq	-1480(%rbp), %rax
	addq	%rsi, %rax
	addl	%ecx, %edx
	movl	%edx, (%rax)
	movq	-1464(%rbp), %rax
	leaq	0(,%rax,4), %rdx
	movq	-1480(%rbp), %rax
	addq	%rdx, %rax
	movl	(%rax), %edx
	movq	-1456(%rbp), %rax
	leaq	0(,%rax,4), %rcx
	movq	-1480(%rbp), %rax
	addq	%rcx, %rax
	movl	(%rax), %eax
	xorl	%edx, %eax
	movq	-1464(%rbp), %rdx
	leaq	0(,%rdx,4), %rcx
	movq	-1480(%rbp), %rdx
	addq	%rcx, %rdx
	movl	%eax, -4120(%rbp)
	movl	$7, -4116(%rbp)
	movl	-4116(%rbp), %eax
	movl	-4120(%rbp), %esi
	movl	%eax, %ecx
	rorl	%cl, %esi
	movl	%esi, %eax
	movl	%eax, (%rdx)
	nop
	movq	-1528(%rbp), %rax
	addq	$5, %rax
	movzbl	(%rax), %eax
	movzbl	%al, %eax
	leaq	0(,%rax,4), %rdx
	movq	-1544(%rbp), %rax
	addq	%rdx, %rax
	movl	(%rax), %eax
	movq	-1528(%rbp), %rdx
	addq	$4, %rdx
	movzbl	(%rdx), %edx
	movzbl	%dl, %edx
	leaq	0(,%rdx,4), %rcx
	movq	-1544(%rbp), %rdx
	addq	%rcx, %rdx
	movl	(%rdx), %edx
	movq	-1552(%rbp), %rcx
	movq	%rcx, -1440(%rbp)
	movq	$2, -1432(%rbp)
	movq	$6, -1424(%rbp)
	movq	$10, -1416(%rbp)
	movq	$14, -1408(%rbp)
	movl	%edx, -4112(%rbp)
	movl	%eax, -4108(%rbp)
	movq	-1432(%rbp), %rax
	leaq	0(,%rax,4), %rdx
	movq	-1440(%rbp), %rax
	addq	%rdx, %rax
	movl	(%rax), %edx
	movq	-1424(%rbp), %rax
	leaq	0(,%rax,4), %rcx
	movq	-1440(%rbp), %rax
	addq	%rcx, %rax
	movl	(%rax), %eax
	leal	(%rdx,%rax), %ecx
	movq	-1432(%rbp), %rax
	leaq	0(,%rax,4), %rdx
	movq	-1440(%rbp), %rax
	addq	%rdx, %rax
	movl	-4112(%rbp), %edx
	addl	%ecx, %edx
	movl	%edx, (%rax)
	movq	-1408(%rbp), %rax
	leaq	0(,%rax,4), %rdx
	movq	-1440(%rbp), %rax
	addq	%rdx, %rax
	movl	(%rax), %edx
	movq	-1432(%rbp), %rax
	leaq	0(,%rax,4), %rcx
	movq	-1440(%rbp), %rax
	addq	%rcx, %rax
	movl	(%rax), %eax
	xorl	%edx, %eax
	movq	-1408(%rbp), %rdx
	leaq	0(,%rdx,4), %rcx
	movq	-1440(%rbp), %rdx
	addq	%rcx, %rdx
	movl	%eax, -4104(%rbp)
	movl	$16, -4100(%rbp)
	movl	-4100(%rbp), %eax
	movl	-4104(%rbp), %esi
	movl	%eax, %ecx
	rorl	%cl, %esi
	movl	%esi, %eax
	movl	%eax, (%rdx)
	movq	-1416(%rbp), %rax
	leaq	0(,%rax,4), %rdx
	movq	-1440(%rbp), %rax
	addq	%rdx, %rax
	movl	(%rax), %ecx
	movq	-1408(%rbp), %rax
	leaq	0(,%rax,4), %rdx
	movq	-1440(%rbp), %rax
	addq	%rdx, %rax
	movl	(%rax), %edx
	movq	-1416(%rbp), %rax
	leaq	0(,%rax,4), %rsi
	movq	-1440(%rbp), %rax
	addq	%rsi, %rax
	addl	%ecx, %edx
	movl	%edx, (%rax)
	movq	-1424(%rbp), %rax
	leaq	0(,%rax,4), %rdx
	movq	-1440(%rbp), %rax
	addq	%rdx, %rax
	movl	(%rax), %edx
	movq	-1416(%rbp), %rax
	leaq	0(,%rax,4), %rcx
	movq	-1440(%rbp), %rax
	addq	%rcx, %rax
	movl	(%rax), %eax
	xorl	%edx, %eax
	movq	-1424(%rbp), %rdx
	leaq	0(,%rdx,4), %rcx
	movq	-1440(%rbp), %rdx
	addq	%rcx, %rdx
	movl	%eax, -4096(%rbp)
	movl	$12, -4092(%rbp)
	movl	-4092(%rbp), %eax
	movl	-4096(%rbp), %esi
	movl	%eax, %ecx
	rorl	%cl, %esi
	movl	%esi, %eax
	movl	%eax, (%rdx)
	movq	-1432(%rbp), %rax
	leaq	0(,%rax,4), %rdx
	movq	-1440(%rbp), %rax
	addq	%rdx, %rax
	movl	(%rax), %edx
	movq	-1424(%rbp), %rax
	leaq	0(,%rax,4), %rcx
	movq	-1440(%rbp), %rax
	addq	%rcx, %rax
	movl	(%rax), %eax
	leal	(%rdx,%rax), %ecx
	movq	-1432(%rbp), %rax
	leaq	0(,%rax,4), %rdx
	movq	-1440(%rbp), %rax
	addq	%rdx, %rax
	movl	-4108(%rbp), %edx
	addl	%ecx, %edx
	movl	%edx, (%rax)
	movq	-1408(%rbp), %rax
	leaq	0(,%rax,4), %rdx
	movq	-1440(%rbp), %rax
	addq	%rdx, %rax
	movl	(%rax), %edx
	movq	-1432(%rbp), %rax
	leaq	0(,%rax,4), %rcx
	movq	-1440(%rbp), %rax
	addq	%rcx, %rax
	movl	(%rax), %eax
	xorl	%edx, %eax
	movq	-1408(%rbp), %rdx
	leaq	0(,%rdx,4), %rcx
	movq	-1440(%rbp), %rdx
	addq	%rcx, %rdx
	movl	%eax, -4088(%rbp)
	movl	$8, -4084(%rbp)
	movl	-4084(%rbp), %eax
	movl	-4088(%rbp), %esi
	movl	%eax, %ecx
	rorl	%cl, %esi
	movl	%esi, %eax
	movl	%eax, (%rdx)
	movq	-1416(%rbp), %rax
	leaq	0(,%rax,4), %rdx
	movq	-1440(%rbp), %rax
	addq	%rdx, %rax
	movl	(%rax), %ecx
	movq	-1408(%rbp), %rax
	leaq	0(,%rax,4), %rdx
	movq	-1440(%rbp), %rax
	addq	%rdx, %rax
	movl	(%rax), %edx
	movq	-1416(%rbp), %rax
	leaq	0(,%rax,4), %rsi
	movq	-1440(%rbp), %rax
	addq	%rsi, %rax
	addl	%ecx, %edx
	movl	%edx, (%rax)
	movq	-1424(%rbp), %rax
	leaq	0(,%rax,4), %rdx
	movq	-1440(%rbp), %rax
	addq	%rdx, %rax
	movl	(%rax), %edx
	movq	-1416(%rbp), %rax
	leaq	0(,%rax,4), %rcx
	movq	-1440(%rbp), %rax
	addq	%rcx, %rax
	movl	(%rax), %eax
	xorl	%edx, %eax
	movq	-1424(%rbp), %rdx
	leaq	0(,%rdx,4), %rcx
	movq	-1440(%rbp), %rdx
	addq	%rcx, %rdx
	movl	%eax, -4080(%rbp)
	movl	$7, -4076(%rbp)
	movl	-4076(%rbp), %eax
	movl	-4080(%rbp), %esi
	movl	%eax, %ecx
	rorl	%cl, %esi
	movl	%esi, %eax
	movl	%eax, (%rdx)
	nop
	movq	-1528(%rbp), %rax
	addq	$7, %rax
	movzbl	(%rax), %eax
	movzbl	%al, %eax
	leaq	0(,%rax,4), %rdx
	movq	-1544(%rbp), %rax
	addq	%rdx, %rax
	movl	(%rax), %eax
	movq	-1528(%rbp), %rdx
	addq	$6, %rdx
	movzbl	(%rdx), %edx
	movzbl	%dl, %edx
	leaq	0(,%rdx,4), %rcx
	movq	-1544(%rbp), %rdx
	addq	%rcx, %rdx
	movl	(%rdx), %edx
	movq	-1552(%rbp), %rcx
	movq	%rcx, -1400(%rbp)
	movq	$3, -1392(%rbp)
	movq	$7, -1384(%rbp)
	movq	$11, -1376(%rbp)
	movq	$15, -1368(%rbp)
	movl	%edx, -4072(%rbp)
	movl	%eax, -4068(%rbp)
	movq	-1392(%rbp), %rax
	leaq	0(,%rax,4), %rdx
	movq	-1400(%rbp), %rax
	addq	%rdx, %rax
	movl	(%rax), %edx
	movq	-1384(%rbp), %rax
	leaq	0(,%rax,4), %rcx
	movq	-1400(%rbp), %rax
	addq	%rcx, %rax
	movl	(%rax), %eax
	leal	(%rdx,%rax), %ecx
	movq	-1392(%rbp), %rax
	leaq	0(,%rax,4), %rdx
	movq	-1400(%rbp), %rax
	addq	%rdx, %rax
	movl	-4072(%rbp), %edx
	addl	%ecx, %edx
	movl	%edx, (%rax)
	movq	-1368(%rbp), %rax
	leaq	0(,%rax,4), %rdx
	movq	-1400(%rbp), %rax
	addq	%rdx, %rax
	movl	(%rax), %edx
	movq	-1392(%rbp), %rax
	leaq	0(,%rax,4), %rcx
	movq	-1400(%rbp), %rax
	addq	%rcx, %rax
	movl	(%rax), %eax
	xorl	%edx, %eax
	movq	-1368(%rbp), %rdx
	leaq	0(,%rdx,4), %rcx
	movq	-1400(%rbp), %rdx
	addq	%rcx, %rdx
	movl	%eax, -4064(%rbp)
	movl	$16, -4060(%rbp)
	movl	-4060(%rbp), %eax
	movl	-4064(%rbp), %esi
	movl	%eax, %ecx
	rorl	%cl, %esi
	movl	%esi, %eax
	movl	%eax, (%rdx)
	movq	-1376(%rbp), %rax
	leaq	0(,%rax,4), %rdx
	movq	-1400(%rbp), %rax
	addq	%rdx, %rax
	movl	(%rax), %ecx
	movq	-1368(%rbp), %rax
	leaq	0(,%rax,4), %rdx
	movq	-1400(%rbp), %rax
	addq	%rdx, %rax
	movl	(%rax), %edx
	movq	-1376(%rbp), %rax
	leaq	0(,%rax,4), %rsi
	movq	-1400(%rbp), %rax
	addq	%rsi, %rax
	addl	%ecx, %edx
	movl	%edx, (%rax)
	movq	-1384(%rbp), %rax
	leaq	0(,%rax,4), %rdx
	movq	-1400(%rbp), %rax
	addq	%rdx, %rax
	movl	(%rax), %edx
	movq	-1376(%rbp), %rax
	leaq	0(,%rax,4), %rcx
	movq	-1400(%rbp), %rax
	addq	%rcx, %rax
	movl	(%rax), %eax
	xorl	%edx, %eax
	movq	-1384(%rbp), %rdx
	leaq	0(,%rdx,4), %rcx
	movq	-1400(%rbp), %rdx
	addq	%rcx, %rdx
	movl	%eax, -4056(%rbp)
	movl	$12, -4052(%rbp)
	movl	-4052(%rbp), %eax
	movl	-4056(%rbp), %esi
	movl	%eax, %ecx
	rorl	%cl, %esi
	movl	%esi, %eax
	movl	%eax, (%rdx)
	movq	-1392(%rbp), %rax
	leaq	0(,%rax,4), %rdx
	movq	-1400(%rbp), %rax
	addq	%rdx, %rax
	movl	(%rax), %edx
	movq	-1384(%rbp), %rax
	leaq	0(,%rax,4), %rcx
	movq	-1400(%rbp), %rax
	addq	%rcx, %rax
	movl	(%rax), %eax
	leal	(%rdx,%rax), %ecx
	movq	-1392(%rbp), %rax
	leaq	0(,%rax,4), %rdx
	movq	-1400(%rbp), %rax
	addq	%rdx, %rax
	movl	-4068(%rbp), %edx
	addl	%ecx, %edx
	movl	%edx, (%rax)
	movq	-1368(%rbp), %rax
	leaq	0(,%rax,4), %rdx
	movq	-1400(%rbp), %rax
	addq	%rdx, %rax
	movl	(%rax), %edx
	movq	-1392(%rbp), %rax
	leaq	0(,%rax,4), %rcx
	movq	-1400(%rbp), %rax
	addq	%rcx, %rax
	movl	(%rax), %eax
	xorl	%edx, %eax
	movq	-1368(%rbp), %rdx
	leaq	0(,%rdx,4), %rcx
	movq	-1400(%rbp), %rdx
	addq	%rcx, %rdx
	movl	%eax, -4048(%rbp)
	movl	$8, -4044(%rbp)
	movl	-4044(%rbp), %eax
	movl	-4048(%rbp), %esi
	movl	%eax, %ecx
	rorl	%cl, %esi
	movl	%esi, %eax
	movl	%eax, (%rdx)
	movq	-1376(%rbp), %rax
	leaq	0(,%rax,4), %rdx
	movq	-1400(%rbp), %rax
	addq	%rdx, %rax
	movl	(%rax), %ecx
	movq	-1368(%rbp), %rax
	leaq	0(,%rax,4), %rdx
	movq	-1400(%rbp), %rax
	addq	%rdx, %rax
	movl	(%rax), %edx
	movq	-1376(%rbp), %rax
	leaq	0(,%rax,4), %rsi
	movq	-1400(%rbp), %rax
	addq	%rsi, %rax
	addl	%ecx, %edx
	movl	%edx, (%rax)
	movq	-1384(%rbp), %rax
	leaq	0(,%rax,4), %rdx
	movq	-1400(%rbp), %rax
	addq	%rdx, %rax
	movl	(%rax), %edx
	movq	-1376(%rbp), %rax
	leaq	0(,%rax,4), %rcx
	movq	-1400(%rbp), %rax
	addq	%rcx, %rax
	movl	(%rax), %eax
	xorl	%edx, %eax
	movq	-1384(%rbp), %rdx
	leaq	0(,%rdx,4), %rcx
	movq	-1400(%rbp), %rdx
	addq	%rcx, %rdx
	movl	%eax, -4040(%rbp)
	movl	$7, -4036(%rbp)
	movl	-4036(%rbp), %eax
	movl	-4040(%rbp), %esi
	movl	%eax, %ecx
	rorl	%cl, %esi
	movl	%esi, %eax
	movl	%eax, (%rdx)
	nop
	movq	-1528(%rbp), %rax
	addq	$9, %rax
	movzbl	(%rax), %eax
	movzbl	%al, %eax
	leaq	0(,%rax,4), %rdx
	movq	-1544(%rbp), %rax
	addq	%rdx, %rax
	movl	(%rax), %eax
	movq	-1528(%rbp), %rdx
	addq	$8, %rdx
	movzbl	(%rdx), %edx
	movzbl	%dl, %edx
	leaq	0(,%rdx,4), %rcx
	movq	-1544(%rbp), %rdx
	addq	%rcx, %rdx
	movl	(%rdx), %edx
	movq	-1552(%rbp), %rcx
	movq	%rcx, -1360(%rbp)
	movq	$0, -1352(%rbp)
	movq	$5, -1344(%rbp)
	movq	$10, -1336(%rbp)
	movq	$15, -1328(%rbp)
	movl	%edx, -4032(%rbp)
	movl	%eax, -4028(%rbp)
	movq	-1352(%rbp), %rax
	leaq	0(,%rax,4), %rdx
	movq	-1360(%rbp), %rax
	addq	%rdx, %rax
	movl	(%rax), %edx
	movq	-1344(%rbp), %rax
	leaq	0(,%rax,4), %rcx
	movq	-1360(%rbp), %rax
	addq	%rcx, %rax
	movl	(%rax), %eax
	leal	(%rdx,%rax), %ecx
	movq	-1352(%rbp), %rax
	leaq	0(,%rax,4), %rdx
	movq	-1360(%rbp), %rax
	addq	%rdx, %rax
	movl	-4032(%rbp), %edx
	addl	%ecx, %edx
	movl	%edx, (%rax)
	movq	-1328(%rbp), %rax
	leaq	0(,%rax,4), %rdx
	movq	-1360(%rbp), %rax
	addq	%rdx, %rax
	movl	(%rax), %edx
	movq	-1352(%rbp), %rax
	leaq	0(,%rax,4), %rcx
	movq	-1360(%rbp), %rax
	addq	%rcx, %rax
	movl	(%rax), %eax
	xorl	%edx, %eax
	movq	-1328(%rbp), %rdx
	leaq	0(,%rdx,4), %rcx
	movq	-1360(%rbp), %rdx
	addq	%rcx, %rdx
	movl	%eax, -4024(%rbp)
	movl	$16, -4020(%rbp)
	movl	-4020(%rbp), %eax
	movl	-4024(%rbp), %esi
	movl	%eax, %ecx
	rorl	%cl, %esi
	movl	%esi, %eax
	movl	%eax, (%rdx)
	movq	-1336(%rbp), %rax
	leaq	0(,%rax,4), %rdx
	movq	-1360(%rbp), %rax
	addq	%rdx, %rax
	movl	(%rax), %ecx
	movq	-1328(%rbp), %rax
	leaq	0(,%rax,4), %rdx
	movq	-1360(%rbp), %rax
	addq	%rdx, %rax
	movl	(%rax), %edx
	movq	-1336(%rbp), %rax
	leaq	0(,%rax,4), %rsi
	movq	-1360(%rbp), %rax
	addq	%rsi, %rax
	addl	%ecx, %edx
	movl	%edx, (%rax)
	movq	-1344(%rbp), %rax
	leaq	0(,%rax,4), %rdx
	movq	-1360(%rbp), %rax
	addq	%rdx, %rax
	movl	(%rax), %edx
	movq	-1336(%rbp), %rax
	leaq	0(,%rax,4), %rcx
	movq	-1360(%rbp), %rax
	addq	%rcx, %rax
	movl	(%rax), %eax
	xorl	%edx, %eax
	movq	-1344(%rbp), %rdx
	leaq	0(,%rdx,4), %rcx
	movq	-1360(%rbp), %rdx
	addq	%rcx, %rdx
	movl	%eax, -4016(%rbp)
	movl	$12, -4012(%rbp)
	movl	-4012(%rbp), %eax
	movl	-4016(%rbp), %esi
	movl	%eax, %ecx
	rorl	%cl, %esi
	movl	%esi, %eax
	movl	%eax, (%rdx)
	movq	-1352(%rbp), %rax
	leaq	0(,%rax,4), %rdx
	movq	-1360(%rbp), %rax
	addq	%rdx, %rax
	movl	(%rax), %edx
	movq	-1344(%rbp), %rax
	leaq	0(,%rax,4), %rcx
	movq	-1360(%rbp), %rax
	addq	%rcx, %rax
	movl	(%rax), %eax
	leal	(%rdx,%rax), %ecx
	movq	-1352(%rbp), %rax
	leaq	0(,%rax,4), %rdx
	movq	-1360(%rbp), %rax
	addq	%rdx, %rax
	movl	-4028(%rbp), %edx
	addl	%ecx, %edx
	movl	%edx, (%rax)
	movq	-1328(%rbp), %rax
	leaq	0(,%rax,4), %rdx
	movq	-1360(%rbp), %rax
	addq	%rdx, %rax
	movl	(%rax), %edx
	movq	-1352(%rbp), %rax
	leaq	0(,%rax,4), %rcx
	movq	-1360(%rbp), %rax
	addq	%rcx, %rax
	movl	(%rax), %eax
	xorl	%edx, %eax
	movq	-1328(%rbp), %rdx
	leaq	0(,%rdx,4), %rcx
	movq	-1360(%rbp), %rdx
	addq	%rcx, %rdx
	movl	%eax, -4008(%rbp)
	movl	$8, -4004(%rbp)
	movl	-4004(%rbp), %eax
	movl	-4008(%rbp), %esi
	movl	%eax, %ecx
	rorl	%cl, %esi
	movl	%esi, %eax
	movl	%eax, (%rdx)
	movq	-1336(%rbp), %rax
	leaq	0(,%rax,4), %rdx
	movq	-1360(%rbp), %rax
	addq	%rdx, %rax
	movl	(%rax), %ecx
	movq	-1328(%rbp), %rax
	leaq	0(,%rax,4), %rdx
	movq	-1360(%rbp), %rax
	addq	%rdx, %rax
	movl	(%rax), %edx
	movq	-1336(%rbp), %rax
	leaq	0(,%rax,4), %rsi
	movq	-1360(%rbp), %rax
	addq	%rsi, %rax
	addl	%ecx, %edx
	movl	%edx, (%rax)
	movq	-1344(%rbp), %rax
	leaq	0(,%rax,4), %rdx
	movq	-1360(%rbp), %rax
	addq	%rdx, %rax
	movl	(%rax), %edx
	movq	-1336(%rbp), %rax
	leaq	0(,%rax,4), %rcx
	movq	-1360(%rbp), %rax
	addq	%rcx, %rax
	movl	(%rax), %eax
	xorl	%edx, %eax
	movq	-1344(%rbp), %rdx
	leaq	0(,%rdx,4), %rcx
	movq	-1360(%rbp), %rdx
	addq	%rcx, %rdx
	movl	%eax, -4000(%rbp)
	movl	$7, -3996(%rbp)
	movl	-3996(%rbp), %eax
	movl	-4000(%rbp), %esi
	movl	%eax, %ecx
	rorl	%cl, %esi
	movl	%esi, %eax
	movl	%eax, (%rdx)
	nop
	movq	-1528(%rbp), %rax
	addq	$11, %rax
	movzbl	(%rax), %eax
	movzbl	%al, %eax
	leaq	0(,%rax,4), %rdx
	movq	-1544(%rbp), %rax
	addq	%rdx, %rax
	movl	(%rax), %eax
	movq	-1528(%rbp), %rdx
	addq	$10, %rdx
	movzbl	(%rdx), %edx
	movzbl	%dl, %edx
	leaq	0(,%rdx,4), %rcx
	movq	-1544(%rbp), %rdx
	addq	%rcx, %rdx
	movl	(%rdx), %edx
	movq	-1552(%rbp), %rcx
	movq	%rcx, -1320(%rbp)
	movq	$1, -1312(%rbp)
	movq	$6, -1304(%rbp)
	movq	$11, -1296(%rbp)
	movq	$12, -1288(%rbp)
	movl	%edx, -3992(%rbp)
	movl	%eax, -3988(%rbp)
	movq	-1312(%rbp), %rax
	leaq	0(,%rax,4), %rdx
	movq	-1320(%rbp), %rax
	addq	%rdx, %rax
	movl	(%rax), %edx
	movq	-1304(%rbp), %rax
	leaq	0(,%rax,4), %rcx
	movq	-1320(%rbp), %rax
	addq	%rcx, %rax
	movl	(%rax), %eax
	leal	(%rdx,%rax), %ecx
	movq	-1312(%rbp), %rax
	leaq	0(,%rax,4), %rdx
	movq	-1320(%rbp), %rax
	addq	%rdx, %rax
	movl	-3992(%rbp), %edx
	addl	%ecx, %edx
	movl	%edx, (%rax)
	movq	-1288(%rbp), %rax
	leaq	0(,%rax,4), %rdx
	movq	-1320(%rbp), %rax
	addq	%rdx, %rax
	movl	(%rax), %edx
	movq	-1312(%rbp), %rax
	leaq	0(,%rax,4), %rcx
	movq	-1320(%rbp), %rax
	addq	%rcx, %rax
	movl	(%rax), %eax
	xorl	%edx, %eax
	movq	-1288(%rbp), %rdx
	leaq	0(,%rdx,4), %rcx
	movq	-1320(%rbp), %rdx
	addq	%rcx, %rdx
	movl	%eax, -3984(%rbp)
	movl	$16, -3980(%rbp)
	movl	-3980(%rbp), %eax
	movl	-3984(%rbp), %esi
	movl	%eax, %ecx
	rorl	%cl, %esi
	movl	%esi, %eax
	movl	%eax, (%rdx)
	movq	-1296(%rbp), %rax
	leaq	0(,%rax,4), %rdx
	movq	-1320(%rbp), %rax
	addq	%rdx, %rax
	movl	(%rax), %ecx
	movq	-1288(%rbp), %rax
	leaq	0(,%rax,4), %rdx
	movq	-1320(%rbp), %rax
	addq	%rdx, %rax
	movl	(%rax), %edx
	movq	-1296(%rbp), %rax
	leaq	0(,%rax,4), %rsi
	movq	-1320(%rbp), %rax
	addq	%rsi, %rax
	addl	%ecx, %edx
	movl	%edx, (%rax)
	movq	-1304(%rbp), %rax
	leaq	0(,%rax,4), %rdx
	movq	-1320(%rbp), %rax
	addq	%rdx, %rax
	movl	(%rax), %edx
	movq	-1296(%rbp), %rax
	leaq	0(,%rax,4), %rcx
	movq	-1320(%rbp), %rax
	addq	%rcx, %rax
	movl	(%rax), %eax
	xorl	%edx, %eax
	movq	-1304(%rbp), %rdx
	leaq	0(,%rdx,4), %rcx
	movq	-1320(%rbp), %rdx
	addq	%rcx, %rdx
	movl	%eax, -3976(%rbp)
	movl	$12, -3972(%rbp)
	movl	-3972(%rbp), %eax
	movl	-3976(%rbp), %esi
	movl	%eax, %ecx
	rorl	%cl, %esi
	movl	%esi, %eax
	movl	%eax, (%rdx)
	movq	-1312(%rbp), %rax
	leaq	0(,%rax,4), %rdx
	movq	-1320(%rbp), %rax
	addq	%rdx, %rax
	movl	(%rax), %edx
	movq	-1304(%rbp), %rax
	leaq	0(,%rax,4), %rcx
	movq	-1320(%rbp), %rax
	addq	%rcx, %rax
	movl	(%rax), %eax
	leal	(%rdx,%rax), %ecx
	movq	-1312(%rbp), %rax
	leaq	0(,%rax,4), %rdx
	movq	-1320(%rbp), %rax
	addq	%rdx, %rax
	movl	-3988(%rbp), %edx
	addl	%ecx, %edx
	movl	%edx, (%rax)
	movq	-1288(%rbp), %rax
	leaq	0(,%rax,4), %rdx
	movq	-1320(%rbp), %rax
	addq	%rdx, %rax
	movl	(%rax), %edx
	movq	-1312(%rbp), %rax
	leaq	0(,%rax,4), %rcx
	movq	-1320(%rbp), %rax
	addq	%rcx, %rax
	movl	(%rax), %eax
	xorl	%edx, %eax
	movq	-1288(%rbp), %rdx
	leaq	0(,%rdx,4), %rcx
	movq	-1320(%rbp), %rdx
	addq	%rcx, %rdx
	movl	%eax, -3968(%rbp)
	movl	$8, -3964(%rbp)
	movl	-3964(%rbp), %eax
	movl	-3968(%rbp), %esi
	movl	%eax, %ecx
	rorl	%cl, %esi
	movl	%esi, %eax
	movl	%eax, (%rdx)
	movq	-1296(%rbp), %rax
	leaq	0(,%rax,4), %rdx
	movq	-1320(%rbp), %rax
	addq	%rdx, %rax
	movl	(%rax), %ecx
	movq	-1288(%rbp), %rax
	leaq	0(,%rax,4), %rdx
	movq	-1320(%rbp), %rax
	addq	%rdx, %rax
	movl	(%rax), %edx
	movq	-1296(%rbp), %rax
	leaq	0(,%rax,4), %rsi
	movq	-1320(%rbp), %rax
	addq	%rsi, %rax
	addl	%ecx, %edx
	movl	%edx, (%rax)
	movq	-1304(%rbp), %rax
	leaq	0(,%rax,4), %rdx
	movq	-1320(%rbp), %rax
	addq	%rdx, %rax
	movl	(%rax), %edx
	movq	-1296(%rbp), %rax
	leaq	0(,%rax,4), %rcx
	movq	-1320(%rbp), %rax
	addq	%rcx, %rax
	movl	(%rax), %eax
	xorl	%edx, %eax
	movq	-1304(%rbp), %rdx
	leaq	0(,%rdx,4), %rcx
	movq	-1320(%rbp), %rdx
	addq	%rcx, %rdx
	movl	%eax, -3960(%rbp)
	movl	$7, -3956(%rbp)
	movl	-3956(%rbp), %eax
	movl	-3960(%rbp), %esi
	movl	%eax, %ecx
	rorl	%cl, %esi
	movl	%esi, %eax
	movl	%eax, (%rdx)
	nop
	movq	-1528(%rbp), %rax
	addq	$13, %rax
	movzbl	(%rax), %eax
	movzbl	%al, %eax
	leaq	0(,%rax,4), %rdx
	movq	-1544(%rbp), %rax
	addq	%rdx, %rax
	movl	(%rax), %eax
	movq	-1528(%rbp), %rdx
	addq	$12, %rdx
	movzbl	(%rdx), %edx
	movzbl	%dl, %edx
	leaq	0(,%rdx,4), %rcx
	movq	-1544(%rbp), %rdx
	addq	%rcx, %rdx
	movl	(%rdx), %edx
	movq	-1552(%rbp), %rcx
	movq	%rcx, -1280(%rbp)
	movq	$2, -1272(%rbp)
	movq	$7, -1264(%rbp)
	movq	$8, -1256(%rbp)
	movq	$13, -1248(%rbp)
	movl	%edx, -3952(%rbp)
	movl	%eax, -3948(%rbp)
	movq	-1272(%rbp), %rax
	leaq	0(,%rax,4), %rdx
	movq	-1280(%rbp), %rax
	addq	%rdx, %rax
	movl	(%rax), %edx
	movq	-1264(%rbp), %rax
	leaq	0(,%rax,4), %rcx
	movq	-1280(%rbp), %rax
	addq	%rcx, %rax
	movl	(%rax), %eax
	leal	(%rdx,%rax), %ecx
	movq	-1272(%rbp), %rax
	leaq	0(,%rax,4), %rdx
	movq	-1280(%rbp), %rax
	addq	%rdx, %rax
	movl	-3952(%rbp), %edx
	addl	%ecx, %edx
	movl	%edx, (%rax)
	movq	-1248(%rbp), %rax
	leaq	0(,%rax,4), %rdx
	movq	-1280(%rbp), %rax
	addq	%rdx, %rax
	movl	(%rax), %edx
	movq	-1272(%rbp), %rax
	leaq	0(,%rax,4), %rcx
	movq	-1280(%rbp), %rax
	addq	%rcx, %rax
	movl	(%rax), %eax
	xorl	%edx, %eax
	movq	-1248(%rbp), %rdx
	leaq	0(,%rdx,4), %rcx
	movq	-1280(%rbp), %rdx
	addq	%rcx, %rdx
	movl	%eax, -3944(%rbp)
	movl	$16, -3940(%rbp)
	movl	-3940(%rbp), %eax
	movl	-3944(%rbp), %esi
	movl	%eax, %ecx
	rorl	%cl, %esi
	movl	%esi, %eax
	movl	%eax, (%rdx)
	movq	-1256(%rbp), %rax
	leaq	0(,%rax,4), %rdx
	movq	-1280(%rbp), %rax
	addq	%rdx, %rax
	movl	(%rax), %ecx
	movq	-1248(%rbp), %rax
	leaq	0(,%rax,4), %rdx
	movq	-1280(%rbp), %rax
	addq	%rdx, %rax
	movl	(%rax), %edx
	movq	-1256(%rbp), %rax
	leaq	0(,%rax,4), %rsi
	movq	-1280(%rbp), %rax
	addq	%rsi, %rax
	addl	%ecx, %edx
	movl	%edx, (%rax)
	movq	-1264(%rbp), %rax
	leaq	0(,%rax,4), %rdx
	movq	-1280(%rbp), %rax
	addq	%rdx, %rax
	movl	(%rax), %edx
	movq	-1256(%rbp), %rax
	leaq	0(,%rax,4), %rcx
	movq	-1280(%rbp), %rax
	addq	%rcx, %rax
	movl	(%rax), %eax
	xorl	%edx, %eax
	movq	-1264(%rbp), %rdx
	leaq	0(,%rdx,4), %rcx
	movq	-1280(%rbp), %rdx
	addq	%rcx, %rdx
	movl	%eax, -3936(%rbp)
	movl	$12, -3932(%rbp)
	movl	-3932(%rbp), %eax
	movl	-3936(%rbp), %esi
	movl	%eax, %ecx
	rorl	%cl, %esi
	movl	%esi, %eax
	movl	%eax, (%rdx)
	movq	-1272(%rbp), %rax
	leaq	0(,%rax,4), %rdx
	movq	-1280(%rbp), %rax
	addq	%rdx, %rax
	movl	(%rax), %edx
	movq	-1264(%rbp), %rax
	leaq	0(,%rax,4), %rcx
	movq	-1280(%rbp), %rax
	addq	%rcx, %rax
	movl	(%rax), %eax
	leal	(%rdx,%rax), %ecx
	movq	-1272(%rbp), %rax
	leaq	0(,%rax,4), %rdx
	movq	-1280(%rbp), %rax
	addq	%rdx, %rax
	movl	-3948(%rbp), %edx
	addl	%ecx, %edx
	movl	%edx, (%rax)
	movq	-1248(%rbp), %rax
	leaq	0(,%rax,4), %rdx
	movq	-1280(%rbp), %rax
	addq	%rdx, %rax
	movl	(%rax), %edx
	movq	-1272(%rbp), %rax
	leaq	0(,%rax,4), %rcx
	movq	-1280(%rbp), %rax
	addq	%rcx, %rax
	movl	(%rax), %eax
	xorl	%edx, %eax
	movq	-1248(%rbp), %rdx
	leaq	0(,%rdx,4), %rcx
	movq	-1280(%rbp), %rdx
	addq	%rcx, %rdx
	movl	%eax, -3928(%rbp)
	movl	$8, -3924(%rbp)
	movl	-3924(%rbp), %eax
	movl	-3928(%rbp), %esi
	movl	%eax, %ecx
	rorl	%cl, %esi
	movl	%esi, %eax
	movl	%eax, (%rdx)
	movq	-1256(%rbp), %rax
	leaq	0(,%rax,4), %rdx
	movq	-1280(%rbp), %rax
	addq	%rdx, %rax
	movl	(%rax), %ecx
	movq	-1248(%rbp), %rax
	leaq	0(,%rax,4), %rdx
	movq	-1280(%rbp), %rax
	addq	%rdx, %rax
	movl	(%rax), %edx
	movq	-1256(%rbp), %rax
	leaq	0(,%rax,4), %rsi
	movq	-1280(%rbp), %rax
	addq	%rsi, %rax
	addl	%ecx, %edx
	movl	%edx, (%rax)
	movq	-1264(%rbp), %rax
	leaq	0(,%rax,4), %rdx
	movq	-1280(%rbp), %rax
	addq	%rdx, %rax
	movl	(%rax), %edx
	movq	-1256(%rbp), %rax
	leaq	0(,%rax,4), %rcx
	movq	-1280(%rbp), %rax
	addq	%rcx, %rax
	movl	(%rax), %eax
	xorl	%edx, %eax
	movq	-1264(%rbp), %rdx
	leaq	0(,%rdx,4), %rcx
	movq	-1280(%rbp), %rdx
	addq	%rcx, %rdx
	movl	%eax, -3920(%rbp)
	movl	$7, -3916(%rbp)
	movl	-3916(%rbp), %eax
	movl	-3920(%rbp), %esi
	movl	%eax, %ecx
	rorl	%cl, %esi
	movl	%esi, %eax
	movl	%eax, (%rdx)
	nop
	movq	-1528(%rbp), %rax
	addq	$15, %rax
	movzbl	(%rax), %eax
	movzbl	%al, %eax
	leaq	0(,%rax,4), %rdx
	movq	-1544(%rbp), %rax
	addq	%rdx, %rax
	movl	(%rax), %eax
	movq	-1528(%rbp), %rdx
	addq	$14, %rdx
	movzbl	(%rdx), %edx
	movzbl	%dl, %edx
	leaq	0(,%rdx,4), %rcx
	movq	-1544(%rbp), %rdx
	addq	%rcx, %rdx
	movl	(%rdx), %edx
	movq	-1552(%rbp), %rcx
	movq	%rcx, -1240(%rbp)
	movq	$3, -1232(%rbp)
	movq	$4, -1224(%rbp)
	movq	$9, -1216(%rbp)
	movq	$14, -1208(%rbp)
	movl	%edx, -3912(%rbp)
	movl	%eax, -3908(%rbp)
	movq	-1232(%rbp), %rax
	leaq	0(,%rax,4), %rdx
	movq	-1240(%rbp), %rax
	addq	%rdx, %rax
	movl	(%rax), %edx
	movq	-1224(%rbp), %rax
	leaq	0(,%rax,4), %rcx
	movq	-1240(%rbp), %rax
	addq	%rcx, %rax
	movl	(%rax), %eax
	leal	(%rdx,%rax), %ecx
	movq	-1232(%rbp), %rax
	leaq	0(,%rax,4), %rdx
	movq	-1240(%rbp), %rax
	addq	%rdx, %rax
	movl	-3912(%rbp), %edx
	addl	%ecx, %edx
	movl	%edx, (%rax)
	movq	-1208(%rbp), %rax
	leaq	0(,%rax,4), %rdx
	movq	-1240(%rbp), %rax
	addq	%rdx, %rax
	movl	(%rax), %edx
	movq	-1232(%rbp), %rax
	leaq	0(,%rax,4), %rcx
	movq	-1240(%rbp), %rax
	addq	%rcx, %rax
	movl	(%rax), %eax
	xorl	%edx, %eax
	movq	-1208(%rbp), %rdx
	leaq	0(,%rdx,4), %rcx
	movq	-1240(%rbp), %rdx
	addq	%rcx, %rdx
	movl	%eax, -3904(%rbp)
	movl	$16, -3900(%rbp)
	movl	-3900(%rbp), %eax
	movl	-3904(%rbp), %esi
	movl	%eax, %ecx
	rorl	%cl, %esi
	movl	%esi, %eax
	movl	%eax, (%rdx)
	movq	-1216(%rbp), %rax
	leaq	0(,%rax,4), %rdx
	movq	-1240(%rbp), %rax
	addq	%rdx, %rax
	movl	(%rax), %ecx
	movq	-1208(%rbp), %rax
	leaq	0(,%rax,4), %rdx
	movq	-1240(%rbp), %rax
	addq	%rdx, %rax
	movl	(%rax), %edx
	movq	-1216(%rbp), %rax
	leaq	0(,%rax,4), %rsi
	movq	-1240(%rbp), %rax
	addq	%rsi, %rax
	addl	%ecx, %edx
	movl	%edx, (%rax)
	movq	-1224(%rbp), %rax
	leaq	0(,%rax,4), %rdx
	movq	-1240(%rbp), %rax
	addq	%rdx, %rax
	movl	(%rax), %edx
	movq	-1216(%rbp), %rax
	leaq	0(,%rax,4), %rcx
	movq	-1240(%rbp), %rax
	addq	%rcx, %rax
	movl	(%rax), %eax
	xorl	%edx, %eax
	movq	-1224(%rbp), %rdx
	leaq	0(,%rdx,4), %rcx
	movq	-1240(%rbp), %rdx
	addq	%rcx, %rdx
	movl	%eax, -3896(%rbp)
	movl	$12, -3892(%rbp)
	movl	-3892(%rbp), %eax
	movl	-3896(%rbp), %esi
	movl	%eax, %ecx
	rorl	%cl, %esi
	movl	%esi, %eax
	movl	%eax, (%rdx)
	movq	-1232(%rbp), %rax
	leaq	0(,%rax,4), %rdx
	movq	-1240(%rbp), %rax
	addq	%rdx, %rax
	movl	(%rax), %edx
	movq	-1224(%rbp), %rax
	leaq	0(,%rax,4), %rcx
	movq	-1240(%rbp), %rax
	addq	%rcx, %rax
	movl	(%rax), %eax
	leal	(%rdx,%rax), %ecx
	movq	-1232(%rbp), %rax
	leaq	0(,%rax,4), %rdx
	movq	-1240(%rbp), %rax
	addq	%rdx, %rax
	movl	-3908(%rbp), %edx
	addl	%ecx, %edx
	movl	%edx, (%rax)
	movq	-1208(%rbp), %rax
	leaq	0(,%rax,4), %rdx
	movq	-1240(%rbp), %rax
	addq	%rdx, %rax
	movl	(%rax), %edx
	movq	-1232(%rbp), %rax
	leaq	0(,%rax,4), %rcx
	movq	-1240(%rbp), %rax
	addq	%rcx, %rax
	movl	(%rax), %eax
	xorl	%edx, %eax
	movq	-1208(%rbp), %rdx
	leaq	0(,%rdx,4), %rcx
	movq	-1240(%rbp), %rdx
	addq	%rcx, %rdx
	movl	%eax, -3888(%rbp)
	movl	$8, -3884(%rbp)
	movl	-3884(%rbp), %eax
	movl	-3888(%rbp), %esi
	movl	%eax, %ecx
	rorl	%cl, %esi
	movl	%esi, %eax
	movl	%eax, (%rdx)
	movq	-1216(%rbp), %rax
	leaq	0(,%rax,4), %rdx
	movq	-1240(%rbp), %rax
	addq	%rdx, %rax
	movl	(%rax), %ecx
	movq	-1208(%rbp), %rax
	leaq	0(,%rax,4), %rdx
	movq	-1240(%rbp), %rax
	addq	%rdx, %rax
	movl	(%rax), %edx
	movq	-1216(%rbp), %rax
	leaq	0(,%rax,4), %rsi
	movq	-1240(%rbp), %rax
	addq	%rsi, %rax
	addl	%ecx, %edx
	movl	%edx, (%rax)
	movq	-1224(%rbp), %rax
	leaq	0(,%rax,4), %rdx
	movq	-1240(%rbp), %rax
	addq	%rdx, %rax
	movl	(%rax), %edx
	movq	-1216(%rbp), %rax
	leaq	0(,%rax,4), %rcx
	movq	-1240(%rbp), %rax
	addq	%rcx, %rax
	movl	(%rax), %eax
	xorl	%edx, %eax
	movq	-1224(%rbp), %rdx
	leaq	0(,%rdx,4), %rcx
	movq	-1240(%rbp), %rdx
	addq	%rcx, %rdx
	movl	%eax, -3880(%rbp)
	movl	$7, -3876(%rbp)
	movl	-3876(%rbp), %eax
	movl	-3880(%rbp), %esi
	movl	%eax, %ecx
	rorl	%cl, %esi
	movl	%esi, %eax
	movl	%eax, (%rdx)
	nop
	nop
	movq	-2912(%rbp), %rax
	movq	%rax, -1200(%rbp)
	leaq	-80(%rbp), %rax
	movq	%rax, -1192(%rbp)
	movq	$4, -1184(%rbp)
	movq	-1184(%rbp), %rax
	salq	$4, %rax
	movq	%rax, %rdx
	leaq	MSG_SCHEDULE(%rip), %rax
	addq	%rdx, %rax
	movq	%rax, -1176(%rbp)
	movq	-1176(%rbp), %rax
	addq	$1, %rax
	movzbl	(%rax), %eax
	movzbl	%al, %eax
	leaq	0(,%rax,4), %rdx
	movq	-1192(%rbp), %rax
	addq	%rdx, %rax
	movl	(%rax), %eax
	movq	-1176(%rbp), %rdx
	movzbl	(%rdx), %edx
	movzbl	%dl, %edx
	leaq	0(,%rdx,4), %rcx
	movq	-1192(%rbp), %rdx
	addq	%rcx, %rdx
	movl	(%rdx), %edx
	movq	-1200(%rbp), %rcx
	movq	%rcx, -1168(%rbp)
	movq	$0, -1160(%rbp)
	movq	$4, -1152(%rbp)
	movq	$8, -1144(%rbp)
	movq	$12, -1136(%rbp)
	movl	%edx, -3872(%rbp)
	movl	%eax, -3868(%rbp)
	movq	-1160(%rbp), %rax
	leaq	0(,%rax,4), %rdx
	movq	-1168(%rbp), %rax
	addq	%rdx, %rax
	movl	(%rax), %edx
	movq	-1152(%rbp), %rax
	leaq	0(,%rax,4), %rcx
	movq	-1168(%rbp), %rax
	addq	%rcx, %rax
	movl	(%rax), %eax
	leal	(%rdx,%rax), %ecx
	movq	-1160(%rbp), %rax
	leaq	0(,%rax,4), %rdx
	movq	-1168(%rbp), %rax
	addq	%rdx, %rax
	movl	-3872(%rbp), %edx
	addl	%ecx, %edx
	movl	%edx, (%rax)
	movq	-1136(%rbp), %rax
	leaq	0(,%rax,4), %rdx
	movq	-1168(%rbp), %rax
	addq	%rdx, %rax
	movl	(%rax), %edx
	movq	-1160(%rbp), %rax
	leaq	0(,%rax,4), %rcx
	movq	-1168(%rbp), %rax
	addq	%rcx, %rax
	movl	(%rax), %eax
	xorl	%edx, %eax
	movq	-1136(%rbp), %rdx
	leaq	0(,%rdx,4), %rcx
	movq	-1168(%rbp), %rdx
	addq	%rcx, %rdx
	movl	%eax, -3864(%rbp)
	movl	$16, -3860(%rbp)
	movl	-3860(%rbp), %eax
	movl	-3864(%rbp), %esi
	movl	%eax, %ecx
	rorl	%cl, %esi
	movl	%esi, %eax
	movl	%eax, (%rdx)
	movq	-1144(%rbp), %rax
	leaq	0(,%rax,4), %rdx
	movq	-1168(%rbp), %rax
	addq	%rdx, %rax
	movl	(%rax), %ecx
	movq	-1136(%rbp), %rax
	leaq	0(,%rax,4), %rdx
	movq	-1168(%rbp), %rax
	addq	%rdx, %rax
	movl	(%rax), %edx
	movq	-1144(%rbp), %rax
	leaq	0(,%rax,4), %rsi
	movq	-1168(%rbp), %rax
	addq	%rsi, %rax
	addl	%ecx, %edx
	movl	%edx, (%rax)
	movq	-1152(%rbp), %rax
	leaq	0(,%rax,4), %rdx
	movq	-1168(%rbp), %rax
	addq	%rdx, %rax
	movl	(%rax), %edx
	movq	-1144(%rbp), %rax
	leaq	0(,%rax,4), %rcx
	movq	-1168(%rbp), %rax
	addq	%rcx, %rax
	movl	(%rax), %eax
	xorl	%edx, %eax
	movq	-1152(%rbp), %rdx
	leaq	0(,%rdx,4), %rcx
	movq	-1168(%rbp), %rdx
	addq	%rcx, %rdx
	movl	%eax, -3856(%rbp)
	movl	$12, -3852(%rbp)
	movl	-3852(%rbp), %eax
	movl	-3856(%rbp), %esi
	movl	%eax, %ecx
	rorl	%cl, %esi
	movl	%esi, %eax
	movl	%eax, (%rdx)
	movq	-1160(%rbp), %rax
	leaq	0(,%rax,4), %rdx
	movq	-1168(%rbp), %rax
	addq	%rdx, %rax
	movl	(%rax), %edx
	movq	-1152(%rbp), %rax
	leaq	0(,%rax,4), %rcx
	movq	-1168(%rbp), %rax
	addq	%rcx, %rax
	movl	(%rax), %eax
	leal	(%rdx,%rax), %ecx
	movq	-1160(%rbp), %rax
	leaq	0(,%rax,4), %rdx
	movq	-1168(%rbp), %rax
	addq	%rdx, %rax
	movl	-3868(%rbp), %edx
	addl	%ecx, %edx
	movl	%edx, (%rax)
	movq	-1136(%rbp), %rax
	leaq	0(,%rax,4), %rdx
	movq	-1168(%rbp), %rax
	addq	%rdx, %rax
	movl	(%rax), %edx
	movq	-1160(%rbp), %rax
	leaq	0(,%rax,4), %rcx
	movq	-1168(%rbp), %rax
	addq	%rcx, %rax
	movl	(%rax), %eax
	xorl	%edx, %eax
	movq	-1136(%rbp), %rdx
	leaq	0(,%rdx,4), %rcx
	movq	-1168(%rbp), %rdx
	addq	%rcx, %rdx
	movl	%eax, -3848(%rbp)
	movl	$8, -3844(%rbp)
	movl	-3844(%rbp), %eax
	movl	-3848(%rbp), %esi
	movl	%eax, %ecx
	rorl	%cl, %esi
	movl	%esi, %eax
	movl	%eax, (%rdx)
	movq	-1144(%rbp), %rax
	leaq	0(,%rax,4), %rdx
	movq	-1168(%rbp), %rax
	addq	%rdx, %rax
	movl	(%rax), %ecx
	movq	-1136(%rbp), %rax
	leaq	0(,%rax,4), %rdx
	movq	-1168(%rbp), %rax
	addq	%rdx, %rax
	movl	(%rax), %edx
	movq	-1144(%rbp), %rax
	leaq	0(,%rax,4), %rsi
	movq	-1168(%rbp), %rax
	addq	%rsi, %rax
	addl	%ecx, %edx
	movl	%edx, (%rax)
	movq	-1152(%rbp), %rax
	leaq	0(,%rax,4), %rdx
	movq	-1168(%rbp), %rax
	addq	%rdx, %rax
	movl	(%rax), %edx
	movq	-1144(%rbp), %rax
	leaq	0(,%rax,4), %rcx
	movq	-1168(%rbp), %rax
	addq	%rcx, %rax
	movl	(%rax), %eax
	xorl	%edx, %eax
	movq	-1152(%rbp), %rdx
	leaq	0(,%rdx,4), %rcx
	movq	-1168(%rbp), %rdx
	addq	%rcx, %rdx
	movl	%eax, -3840(%rbp)
	movl	$7, -3836(%rbp)
	movl	-3836(%rbp), %eax
	movl	-3840(%rbp), %esi
	movl	%eax, %ecx
	rorl	%cl, %esi
	movl	%esi, %eax
	movl	%eax, (%rdx)
	nop
	movq	-1176(%rbp), %rax
	addq	$3, %rax
	movzbl	(%rax), %eax
	movzbl	%al, %eax
	leaq	0(,%rax,4), %rdx
	movq	-1192(%rbp), %rax
	addq	%rdx, %rax
	movl	(%rax), %eax
	movq	-1176(%rbp), %rdx
	addq	$2, %rdx
	movzbl	(%rdx), %edx
	movzbl	%dl, %edx
	leaq	0(,%rdx,4), %rcx
	movq	-1192(%rbp), %rdx
	addq	%rcx, %rdx
	movl	(%rdx), %edx
	movq	-1200(%rbp), %rcx
	movq	%rcx, -1128(%rbp)
	movq	$1, -1120(%rbp)
	movq	$5, -1112(%rbp)
	movq	$9, -1104(%rbp)
	movq	$13, -1096(%rbp)
	movl	%edx, -3832(%rbp)
	movl	%eax, -3828(%rbp)
	movq	-1120(%rbp), %rax
	leaq	0(,%rax,4), %rdx
	movq	-1128(%rbp), %rax
	addq	%rdx, %rax
	movl	(%rax), %edx
	movq	-1112(%rbp), %rax
	leaq	0(,%rax,4), %rcx
	movq	-1128(%rbp), %rax
	addq	%rcx, %rax
	movl	(%rax), %eax
	leal	(%rdx,%rax), %ecx
	movq	-1120(%rbp), %rax
	leaq	0(,%rax,4), %rdx
	movq	-1128(%rbp), %rax
	addq	%rdx, %rax
	movl	-3832(%rbp), %edx
	addl	%ecx, %edx
	movl	%edx, (%rax)
	movq	-1096(%rbp), %rax
	leaq	0(,%rax,4), %rdx
	movq	-1128(%rbp), %rax
	addq	%rdx, %rax
	movl	(%rax), %edx
	movq	-1120(%rbp), %rax
	leaq	0(,%rax,4), %rcx
	movq	-1128(%rbp), %rax
	addq	%rcx, %rax
	movl	(%rax), %eax
	xorl	%edx, %eax
	movq	-1096(%rbp), %rdx
	leaq	0(,%rdx,4), %rcx
	movq	-1128(%rbp), %rdx
	addq	%rcx, %rdx
	movl	%eax, -3824(%rbp)
	movl	$16, -3820(%rbp)
	movl	-3820(%rbp), %eax
	movl	-3824(%rbp), %esi
	movl	%eax, %ecx
	rorl	%cl, %esi
	movl	%esi, %eax
	movl	%eax, (%rdx)
	movq	-1104(%rbp), %rax
	leaq	0(,%rax,4), %rdx
	movq	-1128(%rbp), %rax
	addq	%rdx, %rax
	movl	(%rax), %ecx
	movq	-1096(%rbp), %rax
	leaq	0(,%rax,4), %rdx
	movq	-1128(%rbp), %rax
	addq	%rdx, %rax
	movl	(%rax), %edx
	movq	-1104(%rbp), %rax
	leaq	0(,%rax,4), %rsi
	movq	-1128(%rbp), %rax
	addq	%rsi, %rax
	addl	%ecx, %edx
	movl	%edx, (%rax)
	movq	-1112(%rbp), %rax
	leaq	0(,%rax,4), %rdx
	movq	-1128(%rbp), %rax
	addq	%rdx, %rax
	movl	(%rax), %edx
	movq	-1104(%rbp), %rax
	leaq	0(,%rax,4), %rcx
	movq	-1128(%rbp), %rax
	addq	%rcx, %rax
	movl	(%rax), %eax
	xorl	%edx, %eax
	movq	-1112(%rbp), %rdx
	leaq	0(,%rdx,4), %rcx
	movq	-1128(%rbp), %rdx
	addq	%rcx, %rdx
	movl	%eax, -3816(%rbp)
	movl	$12, -3812(%rbp)
	movl	-3812(%rbp), %eax
	movl	-3816(%rbp), %esi
	movl	%eax, %ecx
	rorl	%cl, %esi
	movl	%esi, %eax
	movl	%eax, (%rdx)
	movq	-1120(%rbp), %rax
	leaq	0(,%rax,4), %rdx
	movq	-1128(%rbp), %rax
	addq	%rdx, %rax
	movl	(%rax), %edx
	movq	-1112(%rbp), %rax
	leaq	0(,%rax,4), %rcx
	movq	-1128(%rbp), %rax
	addq	%rcx, %rax
	movl	(%rax), %eax
	leal	(%rdx,%rax), %ecx
	movq	-1120(%rbp), %rax
	leaq	0(,%rax,4), %rdx
	movq	-1128(%rbp), %rax
	addq	%rdx, %rax
	movl	-3828(%rbp), %edx
	addl	%ecx, %edx
	movl	%edx, (%rax)
	movq	-1096(%rbp), %rax
	leaq	0(,%rax,4), %rdx
	movq	-1128(%rbp), %rax
	addq	%rdx, %rax
	movl	(%rax), %edx
	movq	-1120(%rbp), %rax
	leaq	0(,%rax,4), %rcx
	movq	-1128(%rbp), %rax
	addq	%rcx, %rax
	movl	(%rax), %eax
	xorl	%edx, %eax
	movq	-1096(%rbp), %rdx
	leaq	0(,%rdx,4), %rcx
	movq	-1128(%rbp), %rdx
	addq	%rcx, %rdx
	movl	%eax, -3808(%rbp)
	movl	$8, -3804(%rbp)
	movl	-3804(%rbp), %eax
	movl	-3808(%rbp), %esi
	movl	%eax, %ecx
	rorl	%cl, %esi
	movl	%esi, %eax
	movl	%eax, (%rdx)
	movq	-1104(%rbp), %rax
	leaq	0(,%rax,4), %rdx
	movq	-1128(%rbp), %rax
	addq	%rdx, %rax
	movl	(%rax), %ecx
	movq	-1096(%rbp), %rax
	leaq	0(,%rax,4), %rdx
	movq	-1128(%rbp), %rax
	addq	%rdx, %rax
	movl	(%rax), %edx
	movq	-1104(%rbp), %rax
	leaq	0(,%rax,4), %rsi
	movq	-1128(%rbp), %rax
	addq	%rsi, %rax
	addl	%ecx, %edx
	movl	%edx, (%rax)
	movq	-1112(%rbp), %rax
	leaq	0(,%rax,4), %rdx
	movq	-1128(%rbp), %rax
	addq	%rdx, %rax
	movl	(%rax), %edx
	movq	-1104(%rbp), %rax
	leaq	0(,%rax,4), %rcx
	movq	-1128(%rbp), %rax
	addq	%rcx, %rax
	movl	(%rax), %eax
	xorl	%edx, %eax
	movq	-1112(%rbp), %rdx
	leaq	0(,%rdx,4), %rcx
	movq	-1128(%rbp), %rdx
	addq	%rcx, %rdx
	movl	%eax, -3800(%rbp)
	movl	$7, -3796(%rbp)
	movl	-3796(%rbp), %eax
	movl	-3800(%rbp), %esi
	movl	%eax, %ecx
	rorl	%cl, %esi
	movl	%esi, %eax
	movl	%eax, (%rdx)
	nop
	movq	-1176(%rbp), %rax
	addq	$5, %rax
	movzbl	(%rax), %eax
	movzbl	%al, %eax
	leaq	0(,%rax,4), %rdx
	movq	-1192(%rbp), %rax
	addq	%rdx, %rax
	movl	(%rax), %eax
	movq	-1176(%rbp), %rdx
	addq	$4, %rdx
	movzbl	(%rdx), %edx
	movzbl	%dl, %edx
	leaq	0(,%rdx,4), %rcx
	movq	-1192(%rbp), %rdx
	addq	%rcx, %rdx
	movl	(%rdx), %edx
	movq	-1200(%rbp), %rcx
	movq	%rcx, -1088(%rbp)
	movq	$2, -1080(%rbp)
	movq	$6, -1072(%rbp)
	movq	$10, -1064(%rbp)
	movq	$14, -1056(%rbp)
	movl	%edx, -3792(%rbp)
	movl	%eax, -3788(%rbp)
	movq	-1080(%rbp), %rax
	leaq	0(,%rax,4), %rdx
	movq	-1088(%rbp), %rax
	addq	%rdx, %rax
	movl	(%rax), %edx
	movq	-1072(%rbp), %rax
	leaq	0(,%rax,4), %rcx
	movq	-1088(%rbp), %rax
	addq	%rcx, %rax
	movl	(%rax), %eax
	leal	(%rdx,%rax), %ecx
	movq	-1080(%rbp), %rax
	leaq	0(,%rax,4), %rdx
	movq	-1088(%rbp), %rax
	addq	%rdx, %rax
	movl	-3792(%rbp), %edx
	addl	%ecx, %edx
	movl	%edx, (%rax)
	movq	-1056(%rbp), %rax
	leaq	0(,%rax,4), %rdx
	movq	-1088(%rbp), %rax
	addq	%rdx, %rax
	movl	(%rax), %edx
	movq	-1080(%rbp), %rax
	leaq	0(,%rax,4), %rcx
	movq	-1088(%rbp), %rax
	addq	%rcx, %rax
	movl	(%rax), %eax
	xorl	%edx, %eax
	movq	-1056(%rbp), %rdx
	leaq	0(,%rdx,4), %rcx
	movq	-1088(%rbp), %rdx
	addq	%rcx, %rdx
	movl	%eax, -3784(%rbp)
	movl	$16, -3780(%rbp)
	movl	-3780(%rbp), %eax
	movl	-3784(%rbp), %esi
	movl	%eax, %ecx
	rorl	%cl, %esi
	movl	%esi, %eax
	movl	%eax, (%rdx)
	movq	-1064(%rbp), %rax
	leaq	0(,%rax,4), %rdx
	movq	-1088(%rbp), %rax
	addq	%rdx, %rax
	movl	(%rax), %ecx
	movq	-1056(%rbp), %rax
	leaq	0(,%rax,4), %rdx
	movq	-1088(%rbp), %rax
	addq	%rdx, %rax
	movl	(%rax), %edx
	movq	-1064(%rbp), %rax
	leaq	0(,%rax,4), %rsi
	movq	-1088(%rbp), %rax
	addq	%rsi, %rax
	addl	%ecx, %edx
	movl	%edx, (%rax)
	movq	-1072(%rbp), %rax
	leaq	0(,%rax,4), %rdx
	movq	-1088(%rbp), %rax
	addq	%rdx, %rax
	movl	(%rax), %edx
	movq	-1064(%rbp), %rax
	leaq	0(,%rax,4), %rcx
	movq	-1088(%rbp), %rax
	addq	%rcx, %rax
	movl	(%rax), %eax
	xorl	%edx, %eax
	movq	-1072(%rbp), %rdx
	leaq	0(,%rdx,4), %rcx
	movq	-1088(%rbp), %rdx
	addq	%rcx, %rdx
	movl	%eax, -3776(%rbp)
	movl	$12, -3772(%rbp)
	movl	-3772(%rbp), %eax
	movl	-3776(%rbp), %esi
	movl	%eax, %ecx
	rorl	%cl, %esi
	movl	%esi, %eax
	movl	%eax, (%rdx)
	movq	-1080(%rbp), %rax
	leaq	0(,%rax,4), %rdx
	movq	-1088(%rbp), %rax
	addq	%rdx, %rax
	movl	(%rax), %edx
	movq	-1072(%rbp), %rax
	leaq	0(,%rax,4), %rcx
	movq	-1088(%rbp), %rax
	addq	%rcx, %rax
	movl	(%rax), %eax
	leal	(%rdx,%rax), %ecx
	movq	-1080(%rbp), %rax
	leaq	0(,%rax,4), %rdx
	movq	-1088(%rbp), %rax
	addq	%rdx, %rax
	movl	-3788(%rbp), %edx
	addl	%ecx, %edx
	movl	%edx, (%rax)
	movq	-1056(%rbp), %rax
	leaq	0(,%rax,4), %rdx
	movq	-1088(%rbp), %rax
	addq	%rdx, %rax
	movl	(%rax), %edx
	movq	-1080(%rbp), %rax
	leaq	0(,%rax,4), %rcx
	movq	-1088(%rbp), %rax
	addq	%rcx, %rax
	movl	(%rax), %eax
	xorl	%edx, %eax
	movq	-1056(%rbp), %rdx
	leaq	0(,%rdx,4), %rcx
	movq	-1088(%rbp), %rdx
	addq	%rcx, %rdx
	movl	%eax, -3768(%rbp)
	movl	$8, -3764(%rbp)
	movl	-3764(%rbp), %eax
	movl	-3768(%rbp), %esi
	movl	%eax, %ecx
	rorl	%cl, %esi
	movl	%esi, %eax
	movl	%eax, (%rdx)
	movq	-1064(%rbp), %rax
	leaq	0(,%rax,4), %rdx
	movq	-1088(%rbp), %rax
	addq	%rdx, %rax
	movl	(%rax), %ecx
	movq	-1056(%rbp), %rax
	leaq	0(,%rax,4), %rdx
	movq	-1088(%rbp), %rax
	addq	%rdx, %rax
	movl	(%rax), %edx
	movq	-1064(%rbp), %rax
	leaq	0(,%rax,4), %rsi
	movq	-1088(%rbp), %rax
	addq	%rsi, %rax
	addl	%ecx, %edx
	movl	%edx, (%rax)
	movq	-1072(%rbp), %rax
	leaq	0(,%rax,4), %rdx
	movq	-1088(%rbp), %rax
	addq	%rdx, %rax
	movl	(%rax), %edx
	movq	-1064(%rbp), %rax
	leaq	0(,%rax,4), %rcx
	movq	-1088(%rbp), %rax
	addq	%rcx, %rax
	movl	(%rax), %eax
	xorl	%edx, %eax
	movq	-1072(%rbp), %rdx
	leaq	0(,%rdx,4), %rcx
	movq	-1088(%rbp), %rdx
	addq	%rcx, %rdx
	movl	%eax, -3760(%rbp)
	movl	$7, -3756(%rbp)
	movl	-3756(%rbp), %eax
	movl	-3760(%rbp), %esi
	movl	%eax, %ecx
	rorl	%cl, %esi
	movl	%esi, %eax
	movl	%eax, (%rdx)
	nop
	movq	-1176(%rbp), %rax
	addq	$7, %rax
	movzbl	(%rax), %eax
	movzbl	%al, %eax
	leaq	0(,%rax,4), %rdx
	movq	-1192(%rbp), %rax
	addq	%rdx, %rax
	movl	(%rax), %eax
	movq	-1176(%rbp), %rdx
	addq	$6, %rdx
	movzbl	(%rdx), %edx
	movzbl	%dl, %edx
	leaq	0(,%rdx,4), %rcx
	movq	-1192(%rbp), %rdx
	addq	%rcx, %rdx
	movl	(%rdx), %edx
	movq	-1200(%rbp), %rcx
	movq	%rcx, -1048(%rbp)
	movq	$3, -1040(%rbp)
	movq	$7, -1032(%rbp)
	movq	$11, -1024(%rbp)
	movq	$15, -1016(%rbp)
	movl	%edx, -3752(%rbp)
	movl	%eax, -3748(%rbp)
	movq	-1040(%rbp), %rax
	leaq	0(,%rax,4), %rdx
	movq	-1048(%rbp), %rax
	addq	%rdx, %rax
	movl	(%rax), %edx
	movq	-1032(%rbp), %rax
	leaq	0(,%rax,4), %rcx
	movq	-1048(%rbp), %rax
	addq	%rcx, %rax
	movl	(%rax), %eax
	leal	(%rdx,%rax), %ecx
	movq	-1040(%rbp), %rax
	leaq	0(,%rax,4), %rdx
	movq	-1048(%rbp), %rax
	addq	%rdx, %rax
	movl	-3752(%rbp), %edx
	addl	%ecx, %edx
	movl	%edx, (%rax)
	movq	-1016(%rbp), %rax
	leaq	0(,%rax,4), %rdx
	movq	-1048(%rbp), %rax
	addq	%rdx, %rax
	movl	(%rax), %edx
	movq	-1040(%rbp), %rax
	leaq	0(,%rax,4), %rcx
	movq	-1048(%rbp), %rax
	addq	%rcx, %rax
	movl	(%rax), %eax
	xorl	%edx, %eax
	movq	-1016(%rbp), %rdx
	leaq	0(,%rdx,4), %rcx
	movq	-1048(%rbp), %rdx
	addq	%rcx, %rdx
	movl	%eax, -3744(%rbp)
	movl	$16, -3740(%rbp)
	movl	-3740(%rbp), %eax
	movl	-3744(%rbp), %esi
	movl	%eax, %ecx
	rorl	%cl, %esi
	movl	%esi, %eax
	movl	%eax, (%rdx)
	movq	-1024(%rbp), %rax
	leaq	0(,%rax,4), %rdx
	movq	-1048(%rbp), %rax
	addq	%rdx, %rax
	movl	(%rax), %ecx
	movq	-1016(%rbp), %rax
	leaq	0(,%rax,4), %rdx
	movq	-1048(%rbp), %rax
	addq	%rdx, %rax
	movl	(%rax), %edx
	movq	-1024(%rbp), %rax
	leaq	0(,%rax,4), %rsi
	movq	-1048(%rbp), %rax
	addq	%rsi, %rax
	addl	%ecx, %edx
	movl	%edx, (%rax)
	movq	-1032(%rbp), %rax
	leaq	0(,%rax,4), %rdx
	movq	-1048(%rbp), %rax
	addq	%rdx, %rax
	movl	(%rax), %edx
	movq	-1024(%rbp), %rax
	leaq	0(,%rax,4), %rcx
	movq	-1048(%rbp), %rax
	addq	%rcx, %rax
	movl	(%rax), %eax
	xorl	%edx, %eax
	movq	-1032(%rbp), %rdx
	leaq	0(,%rdx,4), %rcx
	movq	-1048(%rbp), %rdx
	addq	%rcx, %rdx
	movl	%eax, -3736(%rbp)
	movl	$12, -3732(%rbp)
	movl	-3732(%rbp), %eax
	movl	-3736(%rbp), %esi
	movl	%eax, %ecx
	rorl	%cl, %esi
	movl	%esi, %eax
	movl	%eax, (%rdx)
	movq	-1040(%rbp), %rax
	leaq	0(,%rax,4), %rdx
	movq	-1048(%rbp), %rax
	addq	%rdx, %rax
	movl	(%rax), %edx
	movq	-1032(%rbp), %rax
	leaq	0(,%rax,4), %rcx
	movq	-1048(%rbp), %rax
	addq	%rcx, %rax
	movl	(%rax), %eax
	leal	(%rdx,%rax), %ecx
	movq	-1040(%rbp), %rax
	leaq	0(,%rax,4), %rdx
	movq	-1048(%rbp), %rax
	addq	%rdx, %rax
	movl	-3748(%rbp), %edx
	addl	%ecx, %edx
	movl	%edx, (%rax)
	movq	-1016(%rbp), %rax
	leaq	0(,%rax,4), %rdx
	movq	-1048(%rbp), %rax
	addq	%rdx, %rax
	movl	(%rax), %edx
	movq	-1040(%rbp), %rax
	leaq	0(,%rax,4), %rcx
	movq	-1048(%rbp), %rax
	addq	%rcx, %rax
	movl	(%rax), %eax
	xorl	%edx, %eax
	movq	-1016(%rbp), %rdx
	leaq	0(,%rdx,4), %rcx
	movq	-1048(%rbp), %rdx
	addq	%rcx, %rdx
	movl	%eax, -3728(%rbp)
	movl	$8, -3724(%rbp)
	movl	-3724(%rbp), %eax
	movl	-3728(%rbp), %esi
	movl	%eax, %ecx
	rorl	%cl, %esi
	movl	%esi, %eax
	movl	%eax, (%rdx)
	movq	-1024(%rbp), %rax
	leaq	0(,%rax,4), %rdx
	movq	-1048(%rbp), %rax
	addq	%rdx, %rax
	movl	(%rax), %ecx
	movq	-1016(%rbp), %rax
	leaq	0(,%rax,4), %rdx
	movq	-1048(%rbp), %rax
	addq	%rdx, %rax
	movl	(%rax), %edx
	movq	-1024(%rbp), %rax
	leaq	0(,%rax,4), %rsi
	movq	-1048(%rbp), %rax
	addq	%rsi, %rax
	addl	%ecx, %edx
	movl	%edx, (%rax)
	movq	-1032(%rbp), %rax
	leaq	0(,%rax,4), %rdx
	movq	-1048(%rbp), %rax
	addq	%rdx, %rax
	movl	(%rax), %edx
	movq	-1024(%rbp), %rax
	leaq	0(,%rax,4), %rcx
	movq	-1048(%rbp), %rax
	addq	%rcx, %rax
	movl	(%rax), %eax
	xorl	%edx, %eax
	movq	-1032(%rbp), %rdx
	leaq	0(,%rdx,4), %rcx
	movq	-1048(%rbp), %rdx
	addq	%rcx, %rdx
	movl	%eax, -3720(%rbp)
	movl	$7, -3716(%rbp)
	movl	-3716(%rbp), %eax
	movl	-3720(%rbp), %esi
	movl	%eax, %ecx
	rorl	%cl, %esi
	movl	%esi, %eax
	movl	%eax, (%rdx)
	nop
	movq	-1176(%rbp), %rax
	addq	$9, %rax
	movzbl	(%rax), %eax
	movzbl	%al, %eax
	leaq	0(,%rax,4), %rdx
	movq	-1192(%rbp), %rax
	addq	%rdx, %rax
	movl	(%rax), %eax
	movq	-1176(%rbp), %rdx
	addq	$8, %rdx
	movzbl	(%rdx), %edx
	movzbl	%dl, %edx
	leaq	0(,%rdx,4), %rcx
	movq	-1192(%rbp), %rdx
	addq	%rcx, %rdx
	movl	(%rdx), %edx
	movq	-1200(%rbp), %rcx
	movq	%rcx, -1008(%rbp)
	movq	$0, -1000(%rbp)
	movq	$5, -992(%rbp)
	movq	$10, -984(%rbp)
	movq	$15, -976(%rbp)
	movl	%edx, -3712(%rbp)
	movl	%eax, -3708(%rbp)
	movq	-1000(%rbp), %rax
	leaq	0(,%rax,4), %rdx
	movq	-1008(%rbp), %rax
	addq	%rdx, %rax
	movl	(%rax), %edx
	movq	-992(%rbp), %rax
	leaq	0(,%rax,4), %rcx
	movq	-1008(%rbp), %rax
	addq	%rcx, %rax
	movl	(%rax), %eax
	leal	(%rdx,%rax), %ecx
	movq	-1000(%rbp), %rax
	leaq	0(,%rax,4), %rdx
	movq	-1008(%rbp), %rax
	addq	%rdx, %rax
	movl	-3712(%rbp), %edx
	addl	%ecx, %edx
	movl	%edx, (%rax)
	movq	-976(%rbp), %rax
	leaq	0(,%rax,4), %rdx
	movq	-1008(%rbp), %rax
	addq	%rdx, %rax
	movl	(%rax), %edx
	movq	-1000(%rbp), %rax
	leaq	0(,%rax,4), %rcx
	movq	-1008(%rbp), %rax
	addq	%rcx, %rax
	movl	(%rax), %eax
	xorl	%edx, %eax
	movq	-976(%rbp), %rdx
	leaq	0(,%rdx,4), %rcx
	movq	-1008(%rbp), %rdx
	addq	%rcx, %rdx
	movl	%eax, -3704(%rbp)
	movl	$16, -3700(%rbp)
	movl	-3700(%rbp), %eax
	movl	-3704(%rbp), %esi
	movl	%eax, %ecx
	rorl	%cl, %esi
	movl	%esi, %eax
	movl	%eax, (%rdx)
	movq	-984(%rbp), %rax
	leaq	0(,%rax,4), %rdx
	movq	-1008(%rbp), %rax
	addq	%rdx, %rax
	movl	(%rax), %ecx
	movq	-976(%rbp), %rax
	leaq	0(,%rax,4), %rdx
	movq	-1008(%rbp), %rax
	addq	%rdx, %rax
	movl	(%rax), %edx
	movq	-984(%rbp), %rax
	leaq	0(,%rax,4), %rsi
	movq	-1008(%rbp), %rax
	addq	%rsi, %rax
	addl	%ecx, %edx
	movl	%edx, (%rax)
	movq	-992(%rbp), %rax
	leaq	0(,%rax,4), %rdx
	movq	-1008(%rbp), %rax
	addq	%rdx, %rax
	movl	(%rax), %edx
	movq	-984(%rbp), %rax
	leaq	0(,%rax,4), %rcx
	movq	-1008(%rbp), %rax
	addq	%rcx, %rax
	movl	(%rax), %eax
	xorl	%edx, %eax
	movq	-992(%rbp), %rdx
	leaq	0(,%rdx,4), %rcx
	movq	-1008(%rbp), %rdx
	addq	%rcx, %rdx
	movl	%eax, -3696(%rbp)
	movl	$12, -3692(%rbp)
	movl	-3692(%rbp), %eax
	movl	-3696(%rbp), %esi
	movl	%eax, %ecx
	rorl	%cl, %esi
	movl	%esi, %eax
	movl	%eax, (%rdx)
	movq	-1000(%rbp), %rax
	leaq	0(,%rax,4), %rdx
	movq	-1008(%rbp), %rax
	addq	%rdx, %rax
	movl	(%rax), %edx
	movq	-992(%rbp), %rax
	leaq	0(,%rax,4), %rcx
	movq	-1008(%rbp), %rax
	addq	%rcx, %rax
	movl	(%rax), %eax
	leal	(%rdx,%rax), %ecx
	movq	-1000(%rbp), %rax
	leaq	0(,%rax,4), %rdx
	movq	-1008(%rbp), %rax
	addq	%rdx, %rax
	movl	-3708(%rbp), %edx
	addl	%ecx, %edx
	movl	%edx, (%rax)
	movq	-976(%rbp), %rax
	leaq	0(,%rax,4), %rdx
	movq	-1008(%rbp), %rax
	addq	%rdx, %rax
	movl	(%rax), %edx
	movq	-1000(%rbp), %rax
	leaq	0(,%rax,4), %rcx
	movq	-1008(%rbp), %rax
	addq	%rcx, %rax
	movl	(%rax), %eax
	xorl	%edx, %eax
	movq	-976(%rbp), %rdx
	leaq	0(,%rdx,4), %rcx
	movq	-1008(%rbp), %rdx
	addq	%rcx, %rdx
	movl	%eax, -3688(%rbp)
	movl	$8, -3684(%rbp)
	movl	-3684(%rbp), %eax
	movl	-3688(%rbp), %esi
	movl	%eax, %ecx
	rorl	%cl, %esi
	movl	%esi, %eax
	movl	%eax, (%rdx)
	movq	-984(%rbp), %rax
	leaq	0(,%rax,4), %rdx
	movq	-1008(%rbp), %rax
	addq	%rdx, %rax
	movl	(%rax), %ecx
	movq	-976(%rbp), %rax
	leaq	0(,%rax,4), %rdx
	movq	-1008(%rbp), %rax
	addq	%rdx, %rax
	movl	(%rax), %edx
	movq	-984(%rbp), %rax
	leaq	0(,%rax,4), %rsi
	movq	-1008(%rbp), %rax
	addq	%rsi, %rax
	addl	%ecx, %edx
	movl	%edx, (%rax)
	movq	-992(%rbp), %rax
	leaq	0(,%rax,4), %rdx
	movq	-1008(%rbp), %rax
	addq	%rdx, %rax
	movl	(%rax), %edx
	movq	-984(%rbp), %rax
	leaq	0(,%rax,4), %rcx
	movq	-1008(%rbp), %rax
	addq	%rcx, %rax
	movl	(%rax), %eax
	xorl	%edx, %eax
	movq	-992(%rbp), %rdx
	leaq	0(,%rdx,4), %rcx
	movq	-1008(%rbp), %rdx
	addq	%rcx, %rdx
	movl	%eax, -3680(%rbp)
	movl	$7, -3676(%rbp)
	movl	-3676(%rbp), %eax
	movl	-3680(%rbp), %esi
	movl	%eax, %ecx
	rorl	%cl, %esi
	movl	%esi, %eax
	movl	%eax, (%rdx)
	nop
	movq	-1176(%rbp), %rax
	addq	$11, %rax
	movzbl	(%rax), %eax
	movzbl	%al, %eax
	leaq	0(,%rax,4), %rdx
	movq	-1192(%rbp), %rax
	addq	%rdx, %rax
	movl	(%rax), %eax
	movq	-1176(%rbp), %rdx
	addq	$10, %rdx
	movzbl	(%rdx), %edx
	movzbl	%dl, %edx
	leaq	0(,%rdx,4), %rcx
	movq	-1192(%rbp), %rdx
	addq	%rcx, %rdx
	movl	(%rdx), %edx
	movq	-1200(%rbp), %rcx
	movq	%rcx, -968(%rbp)
	movq	$1, -960(%rbp)
	movq	$6, -952(%rbp)
	movq	$11, -944(%rbp)
	movq	$12, -936(%rbp)
	movl	%edx, -3672(%rbp)
	movl	%eax, -3668(%rbp)
	movq	-960(%rbp), %rax
	leaq	0(,%rax,4), %rdx
	movq	-968(%rbp), %rax
	addq	%rdx, %rax
	movl	(%rax), %edx
	movq	-952(%rbp), %rax
	leaq	0(,%rax,4), %rcx
	movq	-968(%rbp), %rax
	addq	%rcx, %rax
	movl	(%rax), %eax
	leal	(%rdx,%rax), %ecx
	movq	-960(%rbp), %rax
	leaq	0(,%rax,4), %rdx
	movq	-968(%rbp), %rax
	addq	%rdx, %rax
	movl	-3672(%rbp), %edx
	addl	%ecx, %edx
	movl	%edx, (%rax)
	movq	-936(%rbp), %rax
	leaq	0(,%rax,4), %rdx
	movq	-968(%rbp), %rax
	addq	%rdx, %rax
	movl	(%rax), %edx
	movq	-960(%rbp), %rax
	leaq	0(,%rax,4), %rcx
	movq	-968(%rbp), %rax
	addq	%rcx, %rax
	movl	(%rax), %eax
	xorl	%edx, %eax
	movq	-936(%rbp), %rdx
	leaq	0(,%rdx,4), %rcx
	movq	-968(%rbp), %rdx
	addq	%rcx, %rdx
	movl	%eax, -3664(%rbp)
	movl	$16, -3660(%rbp)
	movl	-3660(%rbp), %eax
	movl	-3664(%rbp), %esi
	movl	%eax, %ecx
	rorl	%cl, %esi
	movl	%esi, %eax
	movl	%eax, (%rdx)
	movq	-944(%rbp), %rax
	leaq	0(,%rax,4), %rdx
	movq	-968(%rbp), %rax
	addq	%rdx, %rax
	movl	(%rax), %ecx
	movq	-936(%rbp), %rax
	leaq	0(,%rax,4), %rdx
	movq	-968(%rbp), %rax
	addq	%rdx, %rax
	movl	(%rax), %edx
	movq	-944(%rbp), %rax
	leaq	0(,%rax,4), %rsi
	movq	-968(%rbp), %rax
	addq	%rsi, %rax
	addl	%ecx, %edx
	movl	%edx, (%rax)
	movq	-952(%rbp), %rax
	leaq	0(,%rax,4), %rdx
	movq	-968(%rbp), %rax
	addq	%rdx, %rax
	movl	(%rax), %edx
	movq	-944(%rbp), %rax
	leaq	0(,%rax,4), %rcx
	movq	-968(%rbp), %rax
	addq	%rcx, %rax
	movl	(%rax), %eax
	xorl	%edx, %eax
	movq	-952(%rbp), %rdx
	leaq	0(,%rdx,4), %rcx
	movq	-968(%rbp), %rdx
	addq	%rcx, %rdx
	movl	%eax, -3656(%rbp)
	movl	$12, -3652(%rbp)
	movl	-3652(%rbp), %eax
	movl	-3656(%rbp), %esi
	movl	%eax, %ecx
	rorl	%cl, %esi
	movl	%esi, %eax
	movl	%eax, (%rdx)
	movq	-960(%rbp), %rax
	leaq	0(,%rax,4), %rdx
	movq	-968(%rbp), %rax
	addq	%rdx, %rax
	movl	(%rax), %edx
	movq	-952(%rbp), %rax
	leaq	0(,%rax,4), %rcx
	movq	-968(%rbp), %rax
	addq	%rcx, %rax
	movl	(%rax), %eax
	leal	(%rdx,%rax), %ecx
	movq	-960(%rbp), %rax
	leaq	0(,%rax,4), %rdx
	movq	-968(%rbp), %rax
	addq	%rdx, %rax
	movl	-3668(%rbp), %edx
	addl	%ecx, %edx
	movl	%edx, (%rax)
	movq	-936(%rbp), %rax
	leaq	0(,%rax,4), %rdx
	movq	-968(%rbp), %rax
	addq	%rdx, %rax
	movl	(%rax), %edx
	movq	-960(%rbp), %rax
	leaq	0(,%rax,4), %rcx
	movq	-968(%rbp), %rax
	addq	%rcx, %rax
	movl	(%rax), %eax
	xorl	%edx, %eax
	movq	-936(%rbp), %rdx
	leaq	0(,%rdx,4), %rcx
	movq	-968(%rbp), %rdx
	addq	%rcx, %rdx
	movl	%eax, -3648(%rbp)
	movl	$8, -3644(%rbp)
	movl	-3644(%rbp), %eax
	movl	-3648(%rbp), %esi
	movl	%eax, %ecx
	rorl	%cl, %esi
	movl	%esi, %eax
	movl	%eax, (%rdx)
	movq	-944(%rbp), %rax
	leaq	0(,%rax,4), %rdx
	movq	-968(%rbp), %rax
	addq	%rdx, %rax
	movl	(%rax), %ecx
	movq	-936(%rbp), %rax
	leaq	0(,%rax,4), %rdx
	movq	-968(%rbp), %rax
	addq	%rdx, %rax
	movl	(%rax), %edx
	movq	-944(%rbp), %rax
	leaq	0(,%rax,4), %rsi
	movq	-968(%rbp), %rax
	addq	%rsi, %rax
	addl	%ecx, %edx
	movl	%edx, (%rax)
	movq	-952(%rbp), %rax
	leaq	0(,%rax,4), %rdx
	movq	-968(%rbp), %rax
	addq	%rdx, %rax
	movl	(%rax), %edx
	movq	-944(%rbp), %rax
	leaq	0(,%rax,4), %rcx
	movq	-968(%rbp), %rax
	addq	%rcx, %rax
	movl	(%rax), %eax
	xorl	%edx, %eax
	movq	-952(%rbp), %rdx
	leaq	0(,%rdx,4), %rcx
	movq	-968(%rbp), %rdx
	addq	%rcx, %rdx
	movl	%eax, -3640(%rbp)
	movl	$7, -3636(%rbp)
	movl	-3636(%rbp), %eax
	movl	-3640(%rbp), %esi
	movl	%eax, %ecx
	rorl	%cl, %esi
	movl	%esi, %eax
	movl	%eax, (%rdx)
	nop
	movq	-1176(%rbp), %rax
	addq	$13, %rax
	movzbl	(%rax), %eax
	movzbl	%al, %eax
	leaq	0(,%rax,4), %rdx
	movq	-1192(%rbp), %rax
	addq	%rdx, %rax
	movl	(%rax), %eax
	movq	-1176(%rbp), %rdx
	addq	$12, %rdx
	movzbl	(%rdx), %edx
	movzbl	%dl, %edx
	leaq	0(,%rdx,4), %rcx
	movq	-1192(%rbp), %rdx
	addq	%rcx, %rdx
	movl	(%rdx), %edx
	movq	-1200(%rbp), %rcx
	movq	%rcx, -928(%rbp)
	movq	$2, -920(%rbp)
	movq	$7, -912(%rbp)
	movq	$8, -904(%rbp)
	movq	$13, -896(%rbp)
	movl	%edx, -3632(%rbp)
	movl	%eax, -3628(%rbp)
	movq	-920(%rbp), %rax
	leaq	0(,%rax,4), %rdx
	movq	-928(%rbp), %rax
	addq	%rdx, %rax
	movl	(%rax), %edx
	movq	-912(%rbp), %rax
	leaq	0(,%rax,4), %rcx
	movq	-928(%rbp), %rax
	addq	%rcx, %rax
	movl	(%rax), %eax
	leal	(%rdx,%rax), %ecx
	movq	-920(%rbp), %rax
	leaq	0(,%rax,4), %rdx
	movq	-928(%rbp), %rax
	addq	%rdx, %rax
	movl	-3632(%rbp), %edx
	addl	%ecx, %edx
	movl	%edx, (%rax)
	movq	-896(%rbp), %rax
	leaq	0(,%rax,4), %rdx
	movq	-928(%rbp), %rax
	addq	%rdx, %rax
	movl	(%rax), %edx
	movq	-920(%rbp), %rax
	leaq	0(,%rax,4), %rcx
	movq	-928(%rbp), %rax
	addq	%rcx, %rax
	movl	(%rax), %eax
	xorl	%edx, %eax
	movq	-896(%rbp), %rdx
	leaq	0(,%rdx,4), %rcx
	movq	-928(%rbp), %rdx
	addq	%rcx, %rdx
	movl	%eax, -3624(%rbp)
	movl	$16, -3620(%rbp)
	movl	-3620(%rbp), %eax
	movl	-3624(%rbp), %esi
	movl	%eax, %ecx
	rorl	%cl, %esi
	movl	%esi, %eax
	movl	%eax, (%rdx)
	movq	-904(%rbp), %rax
	leaq	0(,%rax,4), %rdx
	movq	-928(%rbp), %rax
	addq	%rdx, %rax
	movl	(%rax), %ecx
	movq	-896(%rbp), %rax
	leaq	0(,%rax,4), %rdx
	movq	-928(%rbp), %rax
	addq	%rdx, %rax
	movl	(%rax), %edx
	movq	-904(%rbp), %rax
	leaq	0(,%rax,4), %rsi
	movq	-928(%rbp), %rax
	addq	%rsi, %rax
	addl	%ecx, %edx
	movl	%edx, (%rax)
	movq	-912(%rbp), %rax
	leaq	0(,%rax,4), %rdx
	movq	-928(%rbp), %rax
	addq	%rdx, %rax
	movl	(%rax), %edx
	movq	-904(%rbp), %rax
	leaq	0(,%rax,4), %rcx
	movq	-928(%rbp), %rax
	addq	%rcx, %rax
	movl	(%rax), %eax
	xorl	%edx, %eax
	movq	-912(%rbp), %rdx
	leaq	0(,%rdx,4), %rcx
	movq	-928(%rbp), %rdx
	addq	%rcx, %rdx
	movl	%eax, -3616(%rbp)
	movl	$12, -3612(%rbp)
	movl	-3612(%rbp), %eax
	movl	-3616(%rbp), %esi
	movl	%eax, %ecx
	rorl	%cl, %esi
	movl	%esi, %eax
	movl	%eax, (%rdx)
	movq	-920(%rbp), %rax
	leaq	0(,%rax,4), %rdx
	movq	-928(%rbp), %rax
	addq	%rdx, %rax
	movl	(%rax), %edx
	movq	-912(%rbp), %rax
	leaq	0(,%rax,4), %rcx
	movq	-928(%rbp), %rax
	addq	%rcx, %rax
	movl	(%rax), %eax
	leal	(%rdx,%rax), %ecx
	movq	-920(%rbp), %rax
	leaq	0(,%rax,4), %rdx
	movq	-928(%rbp), %rax
	addq	%rdx, %rax
	movl	-3628(%rbp), %edx
	addl	%ecx, %edx
	movl	%edx, (%rax)
	movq	-896(%rbp), %rax
	leaq	0(,%rax,4), %rdx
	movq	-928(%rbp), %rax
	addq	%rdx, %rax
	movl	(%rax), %edx
	movq	-920(%rbp), %rax
	leaq	0(,%rax,4), %rcx
	movq	-928(%rbp), %rax
	addq	%rcx, %rax
	movl	(%rax), %eax
	xorl	%edx, %eax
	movq	-896(%rbp), %rdx
	leaq	0(,%rdx,4), %rcx
	movq	-928(%rbp), %rdx
	addq	%rcx, %rdx
	movl	%eax, -3608(%rbp)
	movl	$8, -3604(%rbp)
	movl	-3604(%rbp), %eax
	movl	-3608(%rbp), %esi
	movl	%eax, %ecx
	rorl	%cl, %esi
	movl	%esi, %eax
	movl	%eax, (%rdx)
	movq	-904(%rbp), %rax
	leaq	0(,%rax,4), %rdx
	movq	-928(%rbp), %rax
	addq	%rdx, %rax
	movl	(%rax), %ecx
	movq	-896(%rbp), %rax
	leaq	0(,%rax,4), %rdx
	movq	-928(%rbp), %rax
	addq	%rdx, %rax
	movl	(%rax), %edx
	movq	-904(%rbp), %rax
	leaq	0(,%rax,4), %rsi
	movq	-928(%rbp), %rax
	addq	%rsi, %rax
	addl	%ecx, %edx
	movl	%edx, (%rax)
	movq	-912(%rbp), %rax
	leaq	0(,%rax,4), %rdx
	movq	-928(%rbp), %rax
	addq	%rdx, %rax
	movl	(%rax), %edx
	movq	-904(%rbp), %rax
	leaq	0(,%rax,4), %rcx
	movq	-928(%rbp), %rax
	addq	%rcx, %rax
	movl	(%rax), %eax
	xorl	%edx, %eax
	movq	-912(%rbp), %rdx
	leaq	0(,%rdx,4), %rcx
	movq	-928(%rbp), %rdx
	addq	%rcx, %rdx
	movl	%eax, -3600(%rbp)
	movl	$7, -3596(%rbp)
	movl	-3596(%rbp), %eax
	movl	-3600(%rbp), %esi
	movl	%eax, %ecx
	rorl	%cl, %esi
	movl	%esi, %eax
	movl	%eax, (%rdx)
	nop
	movq	-1176(%rbp), %rax
	addq	$15, %rax
	movzbl	(%rax), %eax
	movzbl	%al, %eax
	leaq	0(,%rax,4), %rdx
	movq	-1192(%rbp), %rax
	addq	%rdx, %rax
	movl	(%rax), %eax
	movq	-1176(%rbp), %rdx
	addq	$14, %rdx
	movzbl	(%rdx), %edx
	movzbl	%dl, %edx
	leaq	0(,%rdx,4), %rcx
	movq	-1192(%rbp), %rdx
	addq	%rcx, %rdx
	movl	(%rdx), %edx
	movq	-1200(%rbp), %rcx
	movq	%rcx, -888(%rbp)
	movq	$3, -880(%rbp)
	movq	$4, -872(%rbp)
	movq	$9, -864(%rbp)
	movq	$14, -856(%rbp)
	movl	%edx, -3592(%rbp)
	movl	%eax, -3588(%rbp)
	movq	-880(%rbp), %rax
	leaq	0(,%rax,4), %rdx
	movq	-888(%rbp), %rax
	addq	%rdx, %rax
	movl	(%rax), %edx
	movq	-872(%rbp), %rax
	leaq	0(,%rax,4), %rcx
	movq	-888(%rbp), %rax
	addq	%rcx, %rax
	movl	(%rax), %eax
	leal	(%rdx,%rax), %ecx
	movq	-880(%rbp), %rax
	leaq	0(,%rax,4), %rdx
	movq	-888(%rbp), %rax
	addq	%rdx, %rax
	movl	-3592(%rbp), %edx
	addl	%ecx, %edx
	movl	%edx, (%rax)
	movq	-856(%rbp), %rax
	leaq	0(,%rax,4), %rdx
	movq	-888(%rbp), %rax
	addq	%rdx, %rax
	movl	(%rax), %edx
	movq	-880(%rbp), %rax
	leaq	0(,%rax,4), %rcx
	movq	-888(%rbp), %rax
	addq	%rcx, %rax
	movl	(%rax), %eax
	xorl	%edx, %eax
	movq	-856(%rbp), %rdx
	leaq	0(,%rdx,4), %rcx
	movq	-888(%rbp), %rdx
	addq	%rcx, %rdx
	movl	%eax, -3584(%rbp)
	movl	$16, -3580(%rbp)
	movl	-3580(%rbp), %eax
	movl	-3584(%rbp), %esi
	movl	%eax, %ecx
	rorl	%cl, %esi
	movl	%esi, %eax
	movl	%eax, (%rdx)
	movq	-864(%rbp), %rax
	leaq	0(,%rax,4), %rdx
	movq	-888(%rbp), %rax
	addq	%rdx, %rax
	movl	(%rax), %ecx
	movq	-856(%rbp), %rax
	leaq	0(,%rax,4), %rdx
	movq	-888(%rbp), %rax
	addq	%rdx, %rax
	movl	(%rax), %edx
	movq	-864(%rbp), %rax
	leaq	0(,%rax,4), %rsi
	movq	-888(%rbp), %rax
	addq	%rsi, %rax
	addl	%ecx, %edx
	movl	%edx, (%rax)
	movq	-872(%rbp), %rax
	leaq	0(,%rax,4), %rdx
	movq	-888(%rbp), %rax
	addq	%rdx, %rax
	movl	(%rax), %edx
	movq	-864(%rbp), %rax
	leaq	0(,%rax,4), %rcx
	movq	-888(%rbp), %rax
	addq	%rcx, %rax
	movl	(%rax), %eax
	xorl	%edx, %eax
	movq	-872(%rbp), %rdx
	leaq	0(,%rdx,4), %rcx
	movq	-888(%rbp), %rdx
	addq	%rcx, %rdx
	movl	%eax, -3576(%rbp)
	movl	$12, -3572(%rbp)
	movl	-3572(%rbp), %eax
	movl	-3576(%rbp), %esi
	movl	%eax, %ecx
	rorl	%cl, %esi
	movl	%esi, %eax
	movl	%eax, (%rdx)
	movq	-880(%rbp), %rax
	leaq	0(,%rax,4), %rdx
	movq	-888(%rbp), %rax
	addq	%rdx, %rax
	movl	(%rax), %edx
	movq	-872(%rbp), %rax
	leaq	0(,%rax,4), %rcx
	movq	-888(%rbp), %rax
	addq	%rcx, %rax
	movl	(%rax), %eax
	leal	(%rdx,%rax), %ecx
	movq	-880(%rbp), %rax
	leaq	0(,%rax,4), %rdx
	movq	-888(%rbp), %rax
	addq	%rdx, %rax
	movl	-3588(%rbp), %edx
	addl	%ecx, %edx
	movl	%edx, (%rax)
	movq	-856(%rbp), %rax
	leaq	0(,%rax,4), %rdx
	movq	-888(%rbp), %rax
	addq	%rdx, %rax
	movl	(%rax), %edx
	movq	-880(%rbp), %rax
	leaq	0(,%rax,4), %rcx
	movq	-888(%rbp), %rax
	addq	%rcx, %rax
	movl	(%rax), %eax
	xorl	%edx, %eax
	movq	-856(%rbp), %rdx
	leaq	0(,%rdx,4), %rcx
	movq	-888(%rbp), %rdx
	addq	%rcx, %rdx
	movl	%eax, -3568(%rbp)
	movl	$8, -3564(%rbp)
	movl	-3564(%rbp), %eax
	movl	-3568(%rbp), %esi
	movl	%eax, %ecx
	rorl	%cl, %esi
	movl	%esi, %eax
	movl	%eax, (%rdx)
	movq	-864(%rbp), %rax
	leaq	0(,%rax,4), %rdx
	movq	-888(%rbp), %rax
	addq	%rdx, %rax
	movl	(%rax), %ecx
	movq	-856(%rbp), %rax
	leaq	0(,%rax,4), %rdx
	movq	-888(%rbp), %rax
	addq	%rdx, %rax
	movl	(%rax), %edx
	movq	-864(%rbp), %rax
	leaq	0(,%rax,4), %rsi
	movq	-888(%rbp), %rax
	addq	%rsi, %rax
	addl	%ecx, %edx
	movl	%edx, (%rax)
	movq	-872(%rbp), %rax
	leaq	0(,%rax,4), %rdx
	movq	-888(%rbp), %rax
	addq	%rdx, %rax
	movl	(%rax), %edx
	movq	-864(%rbp), %rax
	leaq	0(,%rax,4), %rcx
	movq	-888(%rbp), %rax
	addq	%rcx, %rax
	movl	(%rax), %eax
	xorl	%edx, %eax
	movq	-872(%rbp), %rdx
	leaq	0(,%rdx,4), %rcx
	movq	-888(%rbp), %rdx
	addq	%rcx, %rdx
	movl	%eax, -3560(%rbp)
	movl	$7, -3556(%rbp)
	movl	-3556(%rbp), %eax
	movl	-3560(%rbp), %esi
	movl	%eax, %ecx
	rorl	%cl, %esi
	movl	%esi, %eax
	movl	%eax, (%rdx)
	nop
	nop
	movq	-2912(%rbp), %rax
	movq	%rax, -848(%rbp)
	leaq	-80(%rbp), %rax
	movq	%rax, -840(%rbp)
	movq	$5, -832(%rbp)
	movq	-832(%rbp), %rax
	salq	$4, %rax
	movq	%rax, %rdx
	leaq	MSG_SCHEDULE(%rip), %rax
	addq	%rdx, %rax
	movq	%rax, -824(%rbp)
	movq	-824(%rbp), %rax
	addq	$1, %rax
	movzbl	(%rax), %eax
	movzbl	%al, %eax
	leaq	0(,%rax,4), %rdx
	movq	-840(%rbp), %rax
	addq	%rdx, %rax
	movl	(%rax), %eax
	movq	-824(%rbp), %rdx
	movzbl	(%rdx), %edx
	movzbl	%dl, %edx
	leaq	0(,%rdx,4), %rcx
	movq	-840(%rbp), %rdx
	addq	%rcx, %rdx
	movl	(%rdx), %edx
	movq	-848(%rbp), %rcx
	movq	%rcx, -816(%rbp)
	movq	$0, -808(%rbp)
	movq	$4, -800(%rbp)
	movq	$8, -792(%rbp)
	movq	$12, -784(%rbp)
	movl	%edx, -3552(%rbp)
	movl	%eax, -3548(%rbp)
	movq	-808(%rbp), %rax
	leaq	0(,%rax,4), %rdx
	movq	-816(%rbp), %rax
	addq	%rdx, %rax
	movl	(%rax), %edx
	movq	-800(%rbp), %rax
	leaq	0(,%rax,4), %rcx
	movq	-816(%rbp), %rax
	addq	%rcx, %rax
	movl	(%rax), %eax
	leal	(%rdx,%rax), %ecx
	movq	-808(%rbp), %rax
	leaq	0(,%rax,4), %rdx
	movq	-816(%rbp), %rax
	addq	%rdx, %rax
	movl	-3552(%rbp), %edx
	addl	%ecx, %edx
	movl	%edx, (%rax)
	movq	-784(%rbp), %rax
	leaq	0(,%rax,4), %rdx
	movq	-816(%rbp), %rax
	addq	%rdx, %rax
	movl	(%rax), %edx
	movq	-808(%rbp), %rax
	leaq	0(,%rax,4), %rcx
	movq	-816(%rbp), %rax
	addq	%rcx, %rax
	movl	(%rax), %eax
	xorl	%edx, %eax
	movq	-784(%rbp), %rdx
	leaq	0(,%rdx,4), %rcx
	movq	-816(%rbp), %rdx
	addq	%rcx, %rdx
	movl	%eax, -3544(%rbp)
	movl	$16, -3540(%rbp)
	movl	-3540(%rbp), %eax
	movl	-3544(%rbp), %esi
	movl	%eax, %ecx
	rorl	%cl, %esi
	movl	%esi, %eax
	movl	%eax, (%rdx)
	movq	-792(%rbp), %rax
	leaq	0(,%rax,4), %rdx
	movq	-816(%rbp), %rax
	addq	%rdx, %rax
	movl	(%rax), %ecx
	movq	-784(%rbp), %rax
	leaq	0(,%rax,4), %rdx
	movq	-816(%rbp), %rax
	addq	%rdx, %rax
	movl	(%rax), %edx
	movq	-792(%rbp), %rax
	leaq	0(,%rax,4), %rsi
	movq	-816(%rbp), %rax
	addq	%rsi, %rax
	addl	%ecx, %edx
	movl	%edx, (%rax)
	movq	-800(%rbp), %rax
	leaq	0(,%rax,4), %rdx
	movq	-816(%rbp), %rax
	addq	%rdx, %rax
	movl	(%rax), %edx
	movq	-792(%rbp), %rax
	leaq	0(,%rax,4), %rcx
	movq	-816(%rbp), %rax
	addq	%rcx, %rax
	movl	(%rax), %eax
	xorl	%edx, %eax
	movq	-800(%rbp), %rdx
	leaq	0(,%rdx,4), %rcx
	movq	-816(%rbp), %rdx
	addq	%rcx, %rdx
	movl	%eax, -3536(%rbp)
	movl	$12, -3532(%rbp)
	movl	-3532(%rbp), %eax
	movl	-3536(%rbp), %esi
	movl	%eax, %ecx
	rorl	%cl, %esi
	movl	%esi, %eax
	movl	%eax, (%rdx)
	movq	-808(%rbp), %rax
	leaq	0(,%rax,4), %rdx
	movq	-816(%rbp), %rax
	addq	%rdx, %rax
	movl	(%rax), %edx
	movq	-800(%rbp), %rax
	leaq	0(,%rax,4), %rcx
	movq	-816(%rbp), %rax
	addq	%rcx, %rax
	movl	(%rax), %eax
	leal	(%rdx,%rax), %ecx
	movq	-808(%rbp), %rax
	leaq	0(,%rax,4), %rdx
	movq	-816(%rbp), %rax
	addq	%rdx, %rax
	movl	-3548(%rbp), %edx
	addl	%ecx, %edx
	movl	%edx, (%rax)
	movq	-784(%rbp), %rax
	leaq	0(,%rax,4), %rdx
	movq	-816(%rbp), %rax
	addq	%rdx, %rax
	movl	(%rax), %edx
	movq	-808(%rbp), %rax
	leaq	0(,%rax,4), %rcx
	movq	-816(%rbp), %rax
	addq	%rcx, %rax
	movl	(%rax), %eax
	xorl	%edx, %eax
	movq	-784(%rbp), %rdx
	leaq	0(,%rdx,4), %rcx
	movq	-816(%rbp), %rdx
	addq	%rcx, %rdx
	movl	%eax, -3528(%rbp)
	movl	$8, -3524(%rbp)
	movl	-3524(%rbp), %eax
	movl	-3528(%rbp), %esi
	movl	%eax, %ecx
	rorl	%cl, %esi
	movl	%esi, %eax
	movl	%eax, (%rdx)
	movq	-792(%rbp), %rax
	leaq	0(,%rax,4), %rdx
	movq	-816(%rbp), %rax
	addq	%rdx, %rax
	movl	(%rax), %ecx
	movq	-784(%rbp), %rax
	leaq	0(,%rax,4), %rdx
	movq	-816(%rbp), %rax
	addq	%rdx, %rax
	movl	(%rax), %edx
	movq	-792(%rbp), %rax
	leaq	0(,%rax,4), %rsi
	movq	-816(%rbp), %rax
	addq	%rsi, %rax
	addl	%ecx, %edx
	movl	%edx, (%rax)
	movq	-800(%rbp), %rax
	leaq	0(,%rax,4), %rdx
	movq	-816(%rbp), %rax
	addq	%rdx, %rax
	movl	(%rax), %edx
	movq	-792(%rbp), %rax
	leaq	0(,%rax,4), %rcx
	movq	-816(%rbp), %rax
	addq	%rcx, %rax
	movl	(%rax), %eax
	xorl	%edx, %eax
	movq	-800(%rbp), %rdx
	leaq	0(,%rdx,4), %rcx
	movq	-816(%rbp), %rdx
	addq	%rcx, %rdx
	movl	%eax, -3520(%rbp)
	movl	$7, -3516(%rbp)
	movl	-3516(%rbp), %eax
	movl	-3520(%rbp), %esi
	movl	%eax, %ecx
	rorl	%cl, %esi
	movl	%esi, %eax
	movl	%eax, (%rdx)
	nop
	movq	-824(%rbp), %rax
	addq	$3, %rax
	movzbl	(%rax), %eax
	movzbl	%al, %eax
	leaq	0(,%rax,4), %rdx
	movq	-840(%rbp), %rax
	addq	%rdx, %rax
	movl	(%rax), %eax
	movq	-824(%rbp), %rdx
	addq	$2, %rdx
	movzbl	(%rdx), %edx
	movzbl	%dl, %edx
	leaq	0(,%rdx,4), %rcx
	movq	-840(%rbp), %rdx
	addq	%rcx, %rdx
	movl	(%rdx), %edx
	movq	-848(%rbp), %rcx
	movq	%rcx, -776(%rbp)
	movq	$1, -768(%rbp)
	movq	$5, -760(%rbp)
	movq	$9, -752(%rbp)
	movq	$13, -744(%rbp)
	movl	%edx, -3512(%rbp)
	movl	%eax, -3508(%rbp)
	movq	-768(%rbp), %rax
	leaq	0(,%rax,4), %rdx
	movq	-776(%rbp), %rax
	addq	%rdx, %rax
	movl	(%rax), %edx
	movq	-760(%rbp), %rax
	leaq	0(,%rax,4), %rcx
	movq	-776(%rbp), %rax
	addq	%rcx, %rax
	movl	(%rax), %eax
	leal	(%rdx,%rax), %ecx
	movq	-768(%rbp), %rax
	leaq	0(,%rax,4), %rdx
	movq	-776(%rbp), %rax
	addq	%rdx, %rax
	movl	-3512(%rbp), %edx
	addl	%ecx, %edx
	movl	%edx, (%rax)
	movq	-744(%rbp), %rax
	leaq	0(,%rax,4), %rdx
	movq	-776(%rbp), %rax
	addq	%rdx, %rax
	movl	(%rax), %edx
	movq	-768(%rbp), %rax
	leaq	0(,%rax,4), %rcx
	movq	-776(%rbp), %rax
	addq	%rcx, %rax
	movl	(%rax), %eax
	xorl	%edx, %eax
	movq	-744(%rbp), %rdx
	leaq	0(,%rdx,4), %rcx
	movq	-776(%rbp), %rdx
	addq	%rcx, %rdx
	movl	%eax, -3504(%rbp)
	movl	$16, -3500(%rbp)
	movl	-3500(%rbp), %eax
	movl	-3504(%rbp), %esi
	movl	%eax, %ecx
	rorl	%cl, %esi
	movl	%esi, %eax
	movl	%eax, (%rdx)
	movq	-752(%rbp), %rax
	leaq	0(,%rax,4), %rdx
	movq	-776(%rbp), %rax
	addq	%rdx, %rax
	movl	(%rax), %ecx
	movq	-744(%rbp), %rax
	leaq	0(,%rax,4), %rdx
	movq	-776(%rbp), %rax
	addq	%rdx, %rax
	movl	(%rax), %edx
	movq	-752(%rbp), %rax
	leaq	0(,%rax,4), %rsi
	movq	-776(%rbp), %rax
	addq	%rsi, %rax
	addl	%ecx, %edx
	movl	%edx, (%rax)
	movq	-760(%rbp), %rax
	leaq	0(,%rax,4), %rdx
	movq	-776(%rbp), %rax
	addq	%rdx, %rax
	movl	(%rax), %edx
	movq	-752(%rbp), %rax
	leaq	0(,%rax,4), %rcx
	movq	-776(%rbp), %rax
	addq	%rcx, %rax
	movl	(%rax), %eax
	xorl	%edx, %eax
	movq	-760(%rbp), %rdx
	leaq	0(,%rdx,4), %rcx
	movq	-776(%rbp), %rdx
	addq	%rcx, %rdx
	movl	%eax, -3496(%rbp)
	movl	$12, -3492(%rbp)
	movl	-3492(%rbp), %eax
	movl	-3496(%rbp), %esi
	movl	%eax, %ecx
	rorl	%cl, %esi
	movl	%esi, %eax
	movl	%eax, (%rdx)
	movq	-768(%rbp), %rax
	leaq	0(,%rax,4), %rdx
	movq	-776(%rbp), %rax
	addq	%rdx, %rax
	movl	(%rax), %edx
	movq	-760(%rbp), %rax
	leaq	0(,%rax,4), %rcx
	movq	-776(%rbp), %rax
	addq	%rcx, %rax
	movl	(%rax), %eax
	leal	(%rdx,%rax), %ecx
	movq	-768(%rbp), %rax
	leaq	0(,%rax,4), %rdx
	movq	-776(%rbp), %rax
	addq	%rdx, %rax
	movl	-3508(%rbp), %edx
	addl	%ecx, %edx
	movl	%edx, (%rax)
	movq	-744(%rbp), %rax
	leaq	0(,%rax,4), %rdx
	movq	-776(%rbp), %rax
	addq	%rdx, %rax
	movl	(%rax), %edx
	movq	-768(%rbp), %rax
	leaq	0(,%rax,4), %rcx
	movq	-776(%rbp), %rax
	addq	%rcx, %rax
	movl	(%rax), %eax
	xorl	%edx, %eax
	movq	-744(%rbp), %rdx
	leaq	0(,%rdx,4), %rcx
	movq	-776(%rbp), %rdx
	addq	%rcx, %rdx
	movl	%eax, -3488(%rbp)
	movl	$8, -3484(%rbp)
	movl	-3484(%rbp), %eax
	movl	-3488(%rbp), %esi
	movl	%eax, %ecx
	rorl	%cl, %esi
	movl	%esi, %eax
	movl	%eax, (%rdx)
	movq	-752(%rbp), %rax
	leaq	0(,%rax,4), %rdx
	movq	-776(%rbp), %rax
	addq	%rdx, %rax
	movl	(%rax), %ecx
	movq	-744(%rbp), %rax
	leaq	0(,%rax,4), %rdx
	movq	-776(%rbp), %rax
	addq	%rdx, %rax
	movl	(%rax), %edx
	movq	-752(%rbp), %rax
	leaq	0(,%rax,4), %rsi
	movq	-776(%rbp), %rax
	addq	%rsi, %rax
	addl	%ecx, %edx
	movl	%edx, (%rax)
	movq	-760(%rbp), %rax
	leaq	0(,%rax,4), %rdx
	movq	-776(%rbp), %rax
	addq	%rdx, %rax
	movl	(%rax), %edx
	movq	-752(%rbp), %rax
	leaq	0(,%rax,4), %rcx
	movq	-776(%rbp), %rax
	addq	%rcx, %rax
	movl	(%rax), %eax
	xorl	%edx, %eax
	movq	-760(%rbp), %rdx
	leaq	0(,%rdx,4), %rcx
	movq	-776(%rbp), %rdx
	addq	%rcx, %rdx
	movl	%eax, -3480(%rbp)
	movl	$7, -3476(%rbp)
	movl	-3476(%rbp), %eax
	movl	-3480(%rbp), %esi
	movl	%eax, %ecx
	rorl	%cl, %esi
	movl	%esi, %eax
	movl	%eax, (%rdx)
	nop
	movq	-824(%rbp), %rax
	addq	$5, %rax
	movzbl	(%rax), %eax
	movzbl	%al, %eax
	leaq	0(,%rax,4), %rdx
	movq	-840(%rbp), %rax
	addq	%rdx, %rax
	movl	(%rax), %eax
	movq	-824(%rbp), %rdx
	addq	$4, %rdx
	movzbl	(%rdx), %edx
	movzbl	%dl, %edx
	leaq	0(,%rdx,4), %rcx
	movq	-840(%rbp), %rdx
	addq	%rcx, %rdx
	movl	(%rdx), %edx
	movq	-848(%rbp), %rcx
	movq	%rcx, -736(%rbp)
	movq	$2, -728(%rbp)
	movq	$6, -720(%rbp)
	movq	$10, -712(%rbp)
	movq	$14, -704(%rbp)
	movl	%edx, -3472(%rbp)
	movl	%eax, -3468(%rbp)
	movq	-728(%rbp), %rax
	leaq	0(,%rax,4), %rdx
	movq	-736(%rbp), %rax
	addq	%rdx, %rax
	movl	(%rax), %edx
	movq	-720(%rbp), %rax
	leaq	0(,%rax,4), %rcx
	movq	-736(%rbp), %rax
	addq	%rcx, %rax
	movl	(%rax), %eax
	leal	(%rdx,%rax), %ecx
	movq	-728(%rbp), %rax
	leaq	0(,%rax,4), %rdx
	movq	-736(%rbp), %rax
	addq	%rdx, %rax
	movl	-3472(%rbp), %edx
	addl	%ecx, %edx
	movl	%edx, (%rax)
	movq	-704(%rbp), %rax
	leaq	0(,%rax,4), %rdx
	movq	-736(%rbp), %rax
	addq	%rdx, %rax
	movl	(%rax), %edx
	movq	-728(%rbp), %rax
	leaq	0(,%rax,4), %rcx
	movq	-736(%rbp), %rax
	addq	%rcx, %rax
	movl	(%rax), %eax
	xorl	%edx, %eax
	movq	-704(%rbp), %rdx
	leaq	0(,%rdx,4), %rcx
	movq	-736(%rbp), %rdx
	addq	%rcx, %rdx
	movl	%eax, -3464(%rbp)
	movl	$16, -3460(%rbp)
	movl	-3460(%rbp), %eax
	movl	-3464(%rbp), %esi
	movl	%eax, %ecx
	rorl	%cl, %esi
	movl	%esi, %eax
	movl	%eax, (%rdx)
	movq	-712(%rbp), %rax
	leaq	0(,%rax,4), %rdx
	movq	-736(%rbp), %rax
	addq	%rdx, %rax
	movl	(%rax), %ecx
	movq	-704(%rbp), %rax
	leaq	0(,%rax,4), %rdx
	movq	-736(%rbp), %rax
	addq	%rdx, %rax
	movl	(%rax), %edx
	movq	-712(%rbp), %rax
	leaq	0(,%rax,4), %rsi
	movq	-736(%rbp), %rax
	addq	%rsi, %rax
	addl	%ecx, %edx
	movl	%edx, (%rax)
	movq	-720(%rbp), %rax
	leaq	0(,%rax,4), %rdx
	movq	-736(%rbp), %rax
	addq	%rdx, %rax
	movl	(%rax), %edx
	movq	-712(%rbp), %rax
	leaq	0(,%rax,4), %rcx
	movq	-736(%rbp), %rax
	addq	%rcx, %rax
	movl	(%rax), %eax
	xorl	%edx, %eax
	movq	-720(%rbp), %rdx
	leaq	0(,%rdx,4), %rcx
	movq	-736(%rbp), %rdx
	addq	%rcx, %rdx
	movl	%eax, -3456(%rbp)
	movl	$12, -3452(%rbp)
	movl	-3452(%rbp), %eax
	movl	-3456(%rbp), %esi
	movl	%eax, %ecx
	rorl	%cl, %esi
	movl	%esi, %eax
	movl	%eax, (%rdx)
	movq	-728(%rbp), %rax
	leaq	0(,%rax,4), %rdx
	movq	-736(%rbp), %rax
	addq	%rdx, %rax
	movl	(%rax), %edx
	movq	-720(%rbp), %rax
	leaq	0(,%rax,4), %rcx
	movq	-736(%rbp), %rax
	addq	%rcx, %rax
	movl	(%rax), %eax
	leal	(%rdx,%rax), %ecx
	movq	-728(%rbp), %rax
	leaq	0(,%rax,4), %rdx
	movq	-736(%rbp), %rax
	addq	%rdx, %rax
	movl	-3468(%rbp), %edx
	addl	%ecx, %edx
	movl	%edx, (%rax)
	movq	-704(%rbp), %rax
	leaq	0(,%rax,4), %rdx
	movq	-736(%rbp), %rax
	addq	%rdx, %rax
	movl	(%rax), %edx
	movq	-728(%rbp), %rax
	leaq	0(,%rax,4), %rcx
	movq	-736(%rbp), %rax
	addq	%rcx, %rax
	movl	(%rax), %eax
	xorl	%edx, %eax
	movq	-704(%rbp), %rdx
	leaq	0(,%rdx,4), %rcx
	movq	-736(%rbp), %rdx
	addq	%rcx, %rdx
	movl	%eax, -3448(%rbp)
	movl	$8, -3444(%rbp)
	movl	-3444(%rbp), %eax
	movl	-3448(%rbp), %esi
	movl	%eax, %ecx
	rorl	%cl, %esi
	movl	%esi, %eax
	movl	%eax, (%rdx)
	movq	-712(%rbp), %rax
	leaq	0(,%rax,4), %rdx
	movq	-736(%rbp), %rax
	addq	%rdx, %rax
	movl	(%rax), %ecx
	movq	-704(%rbp), %rax
	leaq	0(,%rax,4), %rdx
	movq	-736(%rbp), %rax
	addq	%rdx, %rax
	movl	(%rax), %edx
	movq	-712(%rbp), %rax
	leaq	0(,%rax,4), %rsi
	movq	-736(%rbp), %rax
	addq	%rsi, %rax
	addl	%ecx, %edx
	movl	%edx, (%rax)
	movq	-720(%rbp), %rax
	leaq	0(,%rax,4), %rdx
	movq	-736(%rbp), %rax
	addq	%rdx, %rax
	movl	(%rax), %edx
	movq	-712(%rbp), %rax
	leaq	0(,%rax,4), %rcx
	movq	-736(%rbp), %rax
	addq	%rcx, %rax
	movl	(%rax), %eax
	xorl	%edx, %eax
	movq	-720(%rbp), %rdx
	leaq	0(,%rdx,4), %rcx
	movq	-736(%rbp), %rdx
	addq	%rcx, %rdx
	movl	%eax, -3440(%rbp)
	movl	$7, -3436(%rbp)
	movl	-3436(%rbp), %eax
	movl	-3440(%rbp), %esi
	movl	%eax, %ecx
	rorl	%cl, %esi
	movl	%esi, %eax
	movl	%eax, (%rdx)
	nop
	movq	-824(%rbp), %rax
	addq	$7, %rax
	movzbl	(%rax), %eax
	movzbl	%al, %eax
	leaq	0(,%rax,4), %rdx
	movq	-840(%rbp), %rax
	addq	%rdx, %rax
	movl	(%rax), %eax
	movq	-824(%rbp), %rdx
	addq	$6, %rdx
	movzbl	(%rdx), %edx
	movzbl	%dl, %edx
	leaq	0(,%rdx,4), %rcx
	movq	-840(%rbp), %rdx
	addq	%rcx, %rdx
	movl	(%rdx), %edx
	movq	-848(%rbp), %rcx
	movq	%rcx, -696(%rbp)
	movq	$3, -688(%rbp)
	movq	$7, -680(%rbp)
	movq	$11, -672(%rbp)
	movq	$15, -664(%rbp)
	movl	%edx, -3432(%rbp)
	movl	%eax, -3428(%rbp)
	movq	-688(%rbp), %rax
	leaq	0(,%rax,4), %rdx
	movq	-696(%rbp), %rax
	addq	%rdx, %rax
	movl	(%rax), %edx
	movq	-680(%rbp), %rax
	leaq	0(,%rax,4), %rcx
	movq	-696(%rbp), %rax
	addq	%rcx, %rax
	movl	(%rax), %eax
	leal	(%rdx,%rax), %ecx
	movq	-688(%rbp), %rax
	leaq	0(,%rax,4), %rdx
	movq	-696(%rbp), %rax
	addq	%rdx, %rax
	movl	-3432(%rbp), %edx
	addl	%ecx, %edx
	movl	%edx, (%rax)
	movq	-664(%rbp), %rax
	leaq	0(,%rax,4), %rdx
	movq	-696(%rbp), %rax
	addq	%rdx, %rax
	movl	(%rax), %edx
	movq	-688(%rbp), %rax
	leaq	0(,%rax,4), %rcx
	movq	-696(%rbp), %rax
	addq	%rcx, %rax
	movl	(%rax), %eax
	xorl	%edx, %eax
	movq	-664(%rbp), %rdx
	leaq	0(,%rdx,4), %rcx
	movq	-696(%rbp), %rdx
	addq	%rcx, %rdx
	movl	%eax, -3424(%rbp)
	movl	$16, -3420(%rbp)
	movl	-3420(%rbp), %eax
	movl	-3424(%rbp), %esi
	movl	%eax, %ecx
	rorl	%cl, %esi
	movl	%esi, %eax
	movl	%eax, (%rdx)
	movq	-672(%rbp), %rax
	leaq	0(,%rax,4), %rdx
	movq	-696(%rbp), %rax
	addq	%rdx, %rax
	movl	(%rax), %ecx
	movq	-664(%rbp), %rax
	leaq	0(,%rax,4), %rdx
	movq	-696(%rbp), %rax
	addq	%rdx, %rax
	movl	(%rax), %edx
	movq	-672(%rbp), %rax
	leaq	0(,%rax,4), %rsi
	movq	-696(%rbp), %rax
	addq	%rsi, %rax
	addl	%ecx, %edx
	movl	%edx, (%rax)
	movq	-680(%rbp), %rax
	leaq	0(,%rax,4), %rdx
	movq	-696(%rbp), %rax
	addq	%rdx, %rax
	movl	(%rax), %edx
	movq	-672(%rbp), %rax
	leaq	0(,%rax,4), %rcx
	movq	-696(%rbp), %rax
	addq	%rcx, %rax
	movl	(%rax), %eax
	xorl	%edx, %eax
	movq	-680(%rbp), %rdx
	leaq	0(,%rdx,4), %rcx
	movq	-696(%rbp), %rdx
	addq	%rcx, %rdx
	movl	%eax, -3416(%rbp)
	movl	$12, -3412(%rbp)
	movl	-3412(%rbp), %eax
	movl	-3416(%rbp), %esi
	movl	%eax, %ecx
	rorl	%cl, %esi
	movl	%esi, %eax
	movl	%eax, (%rdx)
	movq	-688(%rbp), %rax
	leaq	0(,%rax,4), %rdx
	movq	-696(%rbp), %rax
	addq	%rdx, %rax
	movl	(%rax), %edx
	movq	-680(%rbp), %rax
	leaq	0(,%rax,4), %rcx
	movq	-696(%rbp), %rax
	addq	%rcx, %rax
	movl	(%rax), %eax
	leal	(%rdx,%rax), %ecx
	movq	-688(%rbp), %rax
	leaq	0(,%rax,4), %rdx
	movq	-696(%rbp), %rax
	addq	%rdx, %rax
	movl	-3428(%rbp), %edx
	addl	%ecx, %edx
	movl	%edx, (%rax)
	movq	-664(%rbp), %rax
	leaq	0(,%rax,4), %rdx
	movq	-696(%rbp), %rax
	addq	%rdx, %rax
	movl	(%rax), %edx
	movq	-688(%rbp), %rax
	leaq	0(,%rax,4), %rcx
	movq	-696(%rbp), %rax
	addq	%rcx, %rax
	movl	(%rax), %eax
	xorl	%edx, %eax
	movq	-664(%rbp), %rdx
	leaq	0(,%rdx,4), %rcx
	movq	-696(%rbp), %rdx
	addq	%rcx, %rdx
	movl	%eax, -3408(%rbp)
	movl	$8, -3404(%rbp)
	movl	-3404(%rbp), %eax
	movl	-3408(%rbp), %esi
	movl	%eax, %ecx
	rorl	%cl, %esi
	movl	%esi, %eax
	movl	%eax, (%rdx)
	movq	-672(%rbp), %rax
	leaq	0(,%rax,4), %rdx
	movq	-696(%rbp), %rax
	addq	%rdx, %rax
	movl	(%rax), %ecx
	movq	-664(%rbp), %rax
	leaq	0(,%rax,4), %rdx
	movq	-696(%rbp), %rax
	addq	%rdx, %rax
	movl	(%rax), %edx
	movq	-672(%rbp), %rax
	leaq	0(,%rax,4), %rsi
	movq	-696(%rbp), %rax
	addq	%rsi, %rax
	addl	%ecx, %edx
	movl	%edx, (%rax)
	movq	-680(%rbp), %rax
	leaq	0(,%rax,4), %rdx
	movq	-696(%rbp), %rax
	addq	%rdx, %rax
	movl	(%rax), %edx
	movq	-672(%rbp), %rax
	leaq	0(,%rax,4), %rcx
	movq	-696(%rbp), %rax
	addq	%rcx, %rax
	movl	(%rax), %eax
	xorl	%edx, %eax
	movq	-680(%rbp), %rdx
	leaq	0(,%rdx,4), %rcx
	movq	-696(%rbp), %rdx
	addq	%rcx, %rdx
	movl	%eax, -3400(%rbp)
	movl	$7, -3396(%rbp)
	movl	-3396(%rbp), %eax
	movl	-3400(%rbp), %esi
	movl	%eax, %ecx
	rorl	%cl, %esi
	movl	%esi, %eax
	movl	%eax, (%rdx)
	nop
	movq	-824(%rbp), %rax
	addq	$9, %rax
	movzbl	(%rax), %eax
	movzbl	%al, %eax
	leaq	0(,%rax,4), %rdx
	movq	-840(%rbp), %rax
	addq	%rdx, %rax
	movl	(%rax), %eax
	movq	-824(%rbp), %rdx
	addq	$8, %rdx
	movzbl	(%rdx), %edx
	movzbl	%dl, %edx
	leaq	0(,%rdx,4), %rcx
	movq	-840(%rbp), %rdx
	addq	%rcx, %rdx
	movl	(%rdx), %edx
	movq	-848(%rbp), %rcx
	movq	%rcx, -656(%rbp)
	movq	$0, -648(%rbp)
	movq	$5, -640(%rbp)
	movq	$10, -632(%rbp)
	movq	$15, -624(%rbp)
	movl	%edx, -3392(%rbp)
	movl	%eax, -3388(%rbp)
	movq	-648(%rbp), %rax
	leaq	0(,%rax,4), %rdx
	movq	-656(%rbp), %rax
	addq	%rdx, %rax
	movl	(%rax), %edx
	movq	-640(%rbp), %rax
	leaq	0(,%rax,4), %rcx
	movq	-656(%rbp), %rax
	addq	%rcx, %rax
	movl	(%rax), %eax
	leal	(%rdx,%rax), %ecx
	movq	-648(%rbp), %rax
	leaq	0(,%rax,4), %rdx
	movq	-656(%rbp), %rax
	addq	%rdx, %rax
	movl	-3392(%rbp), %edx
	addl	%ecx, %edx
	movl	%edx, (%rax)
	movq	-624(%rbp), %rax
	leaq	0(,%rax,4), %rdx
	movq	-656(%rbp), %rax
	addq	%rdx, %rax
	movl	(%rax), %edx
	movq	-648(%rbp), %rax
	leaq	0(,%rax,4), %rcx
	movq	-656(%rbp), %rax
	addq	%rcx, %rax
	movl	(%rax), %eax
	xorl	%edx, %eax
	movq	-624(%rbp), %rdx
	leaq	0(,%rdx,4), %rcx
	movq	-656(%rbp), %rdx
	addq	%rcx, %rdx
	movl	%eax, -3384(%rbp)
	movl	$16, -3380(%rbp)
	movl	-3380(%rbp), %eax
	movl	-3384(%rbp), %esi
	movl	%eax, %ecx
	rorl	%cl, %esi
	movl	%esi, %eax
	movl	%eax, (%rdx)
	movq	-632(%rbp), %rax
	leaq	0(,%rax,4), %rdx
	movq	-656(%rbp), %rax
	addq	%rdx, %rax
	movl	(%rax), %ecx
	movq	-624(%rbp), %rax
	leaq	0(,%rax,4), %rdx
	movq	-656(%rbp), %rax
	addq	%rdx, %rax
	movl	(%rax), %edx
	movq	-632(%rbp), %rax
	leaq	0(,%rax,4), %rsi
	movq	-656(%rbp), %rax
	addq	%rsi, %rax
	addl	%ecx, %edx
	movl	%edx, (%rax)
	movq	-640(%rbp), %rax
	leaq	0(,%rax,4), %rdx
	movq	-656(%rbp), %rax
	addq	%rdx, %rax
	movl	(%rax), %edx
	movq	-632(%rbp), %rax
	leaq	0(,%rax,4), %rcx
	movq	-656(%rbp), %rax
	addq	%rcx, %rax
	movl	(%rax), %eax
	xorl	%edx, %eax
	movq	-640(%rbp), %rdx
	leaq	0(,%rdx,4), %rcx
	movq	-656(%rbp), %rdx
	addq	%rcx, %rdx
	movl	%eax, -3376(%rbp)
	movl	$12, -3372(%rbp)
	movl	-3372(%rbp), %eax
	movl	-3376(%rbp), %esi
	movl	%eax, %ecx
	rorl	%cl, %esi
	movl	%esi, %eax
	movl	%eax, (%rdx)
	movq	-648(%rbp), %rax
	leaq	0(,%rax,4), %rdx
	movq	-656(%rbp), %rax
	addq	%rdx, %rax
	movl	(%rax), %edx
	movq	-640(%rbp), %rax
	leaq	0(,%rax,4), %rcx
	movq	-656(%rbp), %rax
	addq	%rcx, %rax
	movl	(%rax), %eax
	leal	(%rdx,%rax), %ecx
	movq	-648(%rbp), %rax
	leaq	0(,%rax,4), %rdx
	movq	-656(%rbp), %rax
	addq	%rdx, %rax
	movl	-3388(%rbp), %edx
	addl	%ecx, %edx
	movl	%edx, (%rax)
	movq	-624(%rbp), %rax
	leaq	0(,%rax,4), %rdx
	movq	-656(%rbp), %rax
	addq	%rdx, %rax
	movl	(%rax), %edx
	movq	-648(%rbp), %rax
	leaq	0(,%rax,4), %rcx
	movq	-656(%rbp), %rax
	addq	%rcx, %rax
	movl	(%rax), %eax
	xorl	%edx, %eax
	movq	-624(%rbp), %rdx
	leaq	0(,%rdx,4), %rcx
	movq	-656(%rbp), %rdx
	addq	%rcx, %rdx
	movl	%eax, -3368(%rbp)
	movl	$8, -3364(%rbp)
	movl	-3364(%rbp), %eax
	movl	-3368(%rbp), %esi
	movl	%eax, %ecx
	rorl	%cl, %esi
	movl	%esi, %eax
	movl	%eax, (%rdx)
	movq	-632(%rbp), %rax
	leaq	0(,%rax,4), %rdx
	movq	-656(%rbp), %rax
	addq	%rdx, %rax
	movl	(%rax), %ecx
	movq	-624(%rbp), %rax
	leaq	0(,%rax,4), %rdx
	movq	-656(%rbp), %rax
	addq	%rdx, %rax
	movl	(%rax), %edx
	movq	-632(%rbp), %rax
	leaq	0(,%rax,4), %rsi
	movq	-656(%rbp), %rax
	addq	%rsi, %rax
	addl	%ecx, %edx
	movl	%edx, (%rax)
	movq	-640(%rbp), %rax
	leaq	0(,%rax,4), %rdx
	movq	-656(%rbp), %rax
	addq	%rdx, %rax
	movl	(%rax), %edx
	movq	-632(%rbp), %rax
	leaq	0(,%rax,4), %rcx
	movq	-656(%rbp), %rax
	addq	%rcx, %rax
	movl	(%rax), %eax
	xorl	%edx, %eax
	movq	-640(%rbp), %rdx
	leaq	0(,%rdx,4), %rcx
	movq	-656(%rbp), %rdx
	addq	%rcx, %rdx
	movl	%eax, -3360(%rbp)
	movl	$7, -3356(%rbp)
	movl	-3356(%rbp), %eax
	movl	-3360(%rbp), %esi
	movl	%eax, %ecx
	rorl	%cl, %esi
	movl	%esi, %eax
	movl	%eax, (%rdx)
	nop
	movq	-824(%rbp), %rax
	addq	$11, %rax
	movzbl	(%rax), %eax
	movzbl	%al, %eax
	leaq	0(,%rax,4), %rdx
	movq	-840(%rbp), %rax
	addq	%rdx, %rax
	movl	(%rax), %eax
	movq	-824(%rbp), %rdx
	addq	$10, %rdx
	movzbl	(%rdx), %edx
	movzbl	%dl, %edx
	leaq	0(,%rdx,4), %rcx
	movq	-840(%rbp), %rdx
	addq	%rcx, %rdx
	movl	(%rdx), %edx
	movq	-848(%rbp), %rcx
	movq	%rcx, -616(%rbp)
	movq	$1, -608(%rbp)
	movq	$6, -600(%rbp)
	movq	$11, -592(%rbp)
	movq	$12, -584(%rbp)
	movl	%edx, -3352(%rbp)
	movl	%eax, -3348(%rbp)
	movq	-608(%rbp), %rax
	leaq	0(,%rax,4), %rdx
	movq	-616(%rbp), %rax
	addq	%rdx, %rax
	movl	(%rax), %edx
	movq	-600(%rbp), %rax
	leaq	0(,%rax,4), %rcx
	movq	-616(%rbp), %rax
	addq	%rcx, %rax
	movl	(%rax), %eax
	leal	(%rdx,%rax), %ecx
	movq	-608(%rbp), %rax
	leaq	0(,%rax,4), %rdx
	movq	-616(%rbp), %rax
	addq	%rdx, %rax
	movl	-3352(%rbp), %edx
	addl	%ecx, %edx
	movl	%edx, (%rax)
	movq	-584(%rbp), %rax
	leaq	0(,%rax,4), %rdx
	movq	-616(%rbp), %rax
	addq	%rdx, %rax
	movl	(%rax), %edx
	movq	-608(%rbp), %rax
	leaq	0(,%rax,4), %rcx
	movq	-616(%rbp), %rax
	addq	%rcx, %rax
	movl	(%rax), %eax
	xorl	%edx, %eax
	movq	-584(%rbp), %rdx
	leaq	0(,%rdx,4), %rcx
	movq	-616(%rbp), %rdx
	addq	%rcx, %rdx
	movl	%eax, -3344(%rbp)
	movl	$16, -3340(%rbp)
	movl	-3340(%rbp), %eax
	movl	-3344(%rbp), %esi
	movl	%eax, %ecx
	rorl	%cl, %esi
	movl	%esi, %eax
	movl	%eax, (%rdx)
	movq	-592(%rbp), %rax
	leaq	0(,%rax,4), %rdx
	movq	-616(%rbp), %rax
	addq	%rdx, %rax
	movl	(%rax), %ecx
	movq	-584(%rbp), %rax
	leaq	0(,%rax,4), %rdx
	movq	-616(%rbp), %rax
	addq	%rdx, %rax
	movl	(%rax), %edx
	movq	-592(%rbp), %rax
	leaq	0(,%rax,4), %rsi
	movq	-616(%rbp), %rax
	addq	%rsi, %rax
	addl	%ecx, %edx
	movl	%edx, (%rax)
	movq	-600(%rbp), %rax
	leaq	0(,%rax,4), %rdx
	movq	-616(%rbp), %rax
	addq	%rdx, %rax
	movl	(%rax), %edx
	movq	-592(%rbp), %rax
	leaq	0(,%rax,4), %rcx
	movq	-616(%rbp), %rax
	addq	%rcx, %rax
	movl	(%rax), %eax
	xorl	%edx, %eax
	movq	-600(%rbp), %rdx
	leaq	0(,%rdx,4), %rcx
	movq	-616(%rbp), %rdx
	addq	%rcx, %rdx
	movl	%eax, -3336(%rbp)
	movl	$12, -3332(%rbp)
	movl	-3332(%rbp), %eax
	movl	-3336(%rbp), %esi
	movl	%eax, %ecx
	rorl	%cl, %esi
	movl	%esi, %eax
	movl	%eax, (%rdx)
	movq	-608(%rbp), %rax
	leaq	0(,%rax,4), %rdx
	movq	-616(%rbp), %rax
	addq	%rdx, %rax
	movl	(%rax), %edx
	movq	-600(%rbp), %rax
	leaq	0(,%rax,4), %rcx
	movq	-616(%rbp), %rax
	addq	%rcx, %rax
	movl	(%rax), %eax
	leal	(%rdx,%rax), %ecx
	movq	-608(%rbp), %rax
	leaq	0(,%rax,4), %rdx
	movq	-616(%rbp), %rax
	addq	%rdx, %rax
	movl	-3348(%rbp), %edx
	addl	%ecx, %edx
	movl	%edx, (%rax)
	movq	-584(%rbp), %rax
	leaq	0(,%rax,4), %rdx
	movq	-616(%rbp), %rax
	addq	%rdx, %rax
	movl	(%rax), %edx
	movq	-608(%rbp), %rax
	leaq	0(,%rax,4), %rcx
	movq	-616(%rbp), %rax
	addq	%rcx, %rax
	movl	(%rax), %eax
	xorl	%edx, %eax
	movq	-584(%rbp), %rdx
	leaq	0(,%rdx,4), %rcx
	movq	-616(%rbp), %rdx
	addq	%rcx, %rdx
	movl	%eax, -3328(%rbp)
	movl	$8, -3324(%rbp)
	movl	-3324(%rbp), %eax
	movl	-3328(%rbp), %esi
	movl	%eax, %ecx
	rorl	%cl, %esi
	movl	%esi, %eax
	movl	%eax, (%rdx)
	movq	-592(%rbp), %rax
	leaq	0(,%rax,4), %rdx
	movq	-616(%rbp), %rax
	addq	%rdx, %rax
	movl	(%rax), %ecx
	movq	-584(%rbp), %rax
	leaq	0(,%rax,4), %rdx
	movq	-616(%rbp), %rax
	addq	%rdx, %rax
	movl	(%rax), %edx
	movq	-592(%rbp), %rax
	leaq	0(,%rax,4), %rsi
	movq	-616(%rbp), %rax
	addq	%rsi, %rax
	addl	%ecx, %edx
	movl	%edx, (%rax)
	movq	-600(%rbp), %rax
	leaq	0(,%rax,4), %rdx
	movq	-616(%rbp), %rax
	addq	%rdx, %rax
	movl	(%rax), %edx
	movq	-592(%rbp), %rax
	leaq	0(,%rax,4), %rcx
	movq	-616(%rbp), %rax
	addq	%rcx, %rax
	movl	(%rax), %eax
	xorl	%edx, %eax
	movq	-600(%rbp), %rdx
	leaq	0(,%rdx,4), %rcx
	movq	-616(%rbp), %rdx
	addq	%rcx, %rdx
	movl	%eax, -3320(%rbp)
	movl	$7, -3316(%rbp)
	movl	-3316(%rbp), %eax
	movl	-3320(%rbp), %esi
	movl	%eax, %ecx
	rorl	%cl, %esi
	movl	%esi, %eax
	movl	%eax, (%rdx)
	nop
	movq	-824(%rbp), %rax
	addq	$13, %rax
	movzbl	(%rax), %eax
	movzbl	%al, %eax
	leaq	0(,%rax,4), %rdx
	movq	-840(%rbp), %rax
	addq	%rdx, %rax
	movl	(%rax), %eax
	movq	-824(%rbp), %rdx
	addq	$12, %rdx
	movzbl	(%rdx), %edx
	movzbl	%dl, %edx
	leaq	0(,%rdx,4), %rcx
	movq	-840(%rbp), %rdx
	addq	%rcx, %rdx
	movl	(%rdx), %edx
	movq	-848(%rbp), %rcx
	movq	%rcx, -576(%rbp)
	movq	$2, -568(%rbp)
	movq	$7, -560(%rbp)
	movq	$8, -552(%rbp)
	movq	$13, -544(%rbp)
	movl	%edx, -3312(%rbp)
	movl	%eax, -3308(%rbp)
	movq	-568(%rbp), %rax
	leaq	0(,%rax,4), %rdx
	movq	-576(%rbp), %rax
	addq	%rdx, %rax
	movl	(%rax), %edx
	movq	-560(%rbp), %rax
	leaq	0(,%rax,4), %rcx
	movq	-576(%rbp), %rax
	addq	%rcx, %rax
	movl	(%rax), %eax
	leal	(%rdx,%rax), %ecx
	movq	-568(%rbp), %rax
	leaq	0(,%rax,4), %rdx
	movq	-576(%rbp), %rax
	addq	%rdx, %rax
	movl	-3312(%rbp), %edx
	addl	%ecx, %edx
	movl	%edx, (%rax)
	movq	-544(%rbp), %rax
	leaq	0(,%rax,4), %rdx
	movq	-576(%rbp), %rax
	addq	%rdx, %rax
	movl	(%rax), %edx
	movq	-568(%rbp), %rax
	leaq	0(,%rax,4), %rcx
	movq	-576(%rbp), %rax
	addq	%rcx, %rax
	movl	(%rax), %eax
	xorl	%edx, %eax
	movq	-544(%rbp), %rdx
	leaq	0(,%rdx,4), %rcx
	movq	-576(%rbp), %rdx
	addq	%rcx, %rdx
	movl	%eax, -3304(%rbp)
	movl	$16, -3300(%rbp)
	movl	-3300(%rbp), %eax
	movl	-3304(%rbp), %esi
	movl	%eax, %ecx
	rorl	%cl, %esi
	movl	%esi, %eax
	movl	%eax, (%rdx)
	movq	-552(%rbp), %rax
	leaq	0(,%rax,4), %rdx
	movq	-576(%rbp), %rax
	addq	%rdx, %rax
	movl	(%rax), %ecx
	movq	-544(%rbp), %rax
	leaq	0(,%rax,4), %rdx
	movq	-576(%rbp), %rax
	addq	%rdx, %rax
	movl	(%rax), %edx
	movq	-552(%rbp), %rax
	leaq	0(,%rax,4), %rsi
	movq	-576(%rbp), %rax
	addq	%rsi, %rax
	addl	%ecx, %edx
	movl	%edx, (%rax)
	movq	-560(%rbp), %rax
	leaq	0(,%rax,4), %rdx
	movq	-576(%rbp), %rax
	addq	%rdx, %rax
	movl	(%rax), %edx
	movq	-552(%rbp), %rax
	leaq	0(,%rax,4), %rcx
	movq	-576(%rbp), %rax
	addq	%rcx, %rax
	movl	(%rax), %eax
	xorl	%edx, %eax
	movq	-560(%rbp), %rdx
	leaq	0(,%rdx,4), %rcx
	movq	-576(%rbp), %rdx
	addq	%rcx, %rdx
	movl	%eax, -3296(%rbp)
	movl	$12, -3292(%rbp)
	movl	-3292(%rbp), %eax
	movl	-3296(%rbp), %esi
	movl	%eax, %ecx
	rorl	%cl, %esi
	movl	%esi, %eax
	movl	%eax, (%rdx)
	movq	-568(%rbp), %rax
	leaq	0(,%rax,4), %rdx
	movq	-576(%rbp), %rax
	addq	%rdx, %rax
	movl	(%rax), %edx
	movq	-560(%rbp), %rax
	leaq	0(,%rax,4), %rcx
	movq	-576(%rbp), %rax
	addq	%rcx, %rax
	movl	(%rax), %eax
	leal	(%rdx,%rax), %ecx
	movq	-568(%rbp), %rax
	leaq	0(,%rax,4), %rdx
	movq	-576(%rbp), %rax
	addq	%rdx, %rax
	movl	-3308(%rbp), %edx
	addl	%ecx, %edx
	movl	%edx, (%rax)
	movq	-544(%rbp), %rax
	leaq	0(,%rax,4), %rdx
	movq	-576(%rbp), %rax
	addq	%rdx, %rax
	movl	(%rax), %edx
	movq	-568(%rbp), %rax
	leaq	0(,%rax,4), %rcx
	movq	-576(%rbp), %rax
	addq	%rcx, %rax
	movl	(%rax), %eax
	xorl	%edx, %eax
	movq	-544(%rbp), %rdx
	leaq	0(,%rdx,4), %rcx
	movq	-576(%rbp), %rdx
	addq	%rcx, %rdx
	movl	%eax, -3288(%rbp)
	movl	$8, -3284(%rbp)
	movl	-3284(%rbp), %eax
	movl	-3288(%rbp), %esi
	movl	%eax, %ecx
	rorl	%cl, %esi
	movl	%esi, %eax
	movl	%eax, (%rdx)
	movq	-552(%rbp), %rax
	leaq	0(,%rax,4), %rdx
	movq	-576(%rbp), %rax
	addq	%rdx, %rax
	movl	(%rax), %ecx
	movq	-544(%rbp), %rax
	leaq	0(,%rax,4), %rdx
	movq	-576(%rbp), %rax
	addq	%rdx, %rax
	movl	(%rax), %edx
	movq	-552(%rbp), %rax
	leaq	0(,%rax,4), %rsi
	movq	-576(%rbp), %rax
	addq	%rsi, %rax
	addl	%ecx, %edx
	movl	%edx, (%rax)
	movq	-560(%rbp), %rax
	leaq	0(,%rax,4), %rdx
	movq	-576(%rbp), %rax
	addq	%rdx, %rax
	movl	(%rax), %edx
	movq	-552(%rbp), %rax
	leaq	0(,%rax,4), %rcx
	movq	-576(%rbp), %rax
	addq	%rcx, %rax
	movl	(%rax), %eax
	xorl	%edx, %eax
	movq	-560(%rbp), %rdx
	leaq	0(,%rdx,4), %rcx
	movq	-576(%rbp), %rdx
	addq	%rcx, %rdx
	movl	%eax, -3280(%rbp)
	movl	$7, -3276(%rbp)
	movl	-3276(%rbp), %eax
	movl	-3280(%rbp), %esi
	movl	%eax, %ecx
	rorl	%cl, %esi
	movl	%esi, %eax
	movl	%eax, (%rdx)
	nop
	movq	-824(%rbp), %rax
	addq	$15, %rax
	movzbl	(%rax), %eax
	movzbl	%al, %eax
	leaq	0(,%rax,4), %rdx
	movq	-840(%rbp), %rax
	addq	%rdx, %rax
	movl	(%rax), %eax
	movq	-824(%rbp), %rdx
	addq	$14, %rdx
	movzbl	(%rdx), %edx
	movzbl	%dl, %edx
	leaq	0(,%rdx,4), %rcx
	movq	-840(%rbp), %rdx
	addq	%rcx, %rdx
	movl	(%rdx), %edx
	movq	-848(%rbp), %rcx
	movq	%rcx, -536(%rbp)
	movq	$3, -528(%rbp)
	movq	$4, -520(%rbp)
	movq	$9, -512(%rbp)
	movq	$14, -504(%rbp)
	movl	%edx, -3272(%rbp)
	movl	%eax, -3268(%rbp)
	movq	-528(%rbp), %rax
	leaq	0(,%rax,4), %rdx
	movq	-536(%rbp), %rax
	addq	%rdx, %rax
	movl	(%rax), %edx
	movq	-520(%rbp), %rax
	leaq	0(,%rax,4), %rcx
	movq	-536(%rbp), %rax
	addq	%rcx, %rax
	movl	(%rax), %eax
	leal	(%rdx,%rax), %ecx
	movq	-528(%rbp), %rax
	leaq	0(,%rax,4), %rdx
	movq	-536(%rbp), %rax
	addq	%rdx, %rax
	movl	-3272(%rbp), %edx
	addl	%ecx, %edx
	movl	%edx, (%rax)
	movq	-504(%rbp), %rax
	leaq	0(,%rax,4), %rdx
	movq	-536(%rbp), %rax
	addq	%rdx, %rax
	movl	(%rax), %edx
	movq	-528(%rbp), %rax
	leaq	0(,%rax,4), %rcx
	movq	-536(%rbp), %rax
	addq	%rcx, %rax
	movl	(%rax), %eax
	xorl	%edx, %eax
	movq	-504(%rbp), %rdx
	leaq	0(,%rdx,4), %rcx
	movq	-536(%rbp), %rdx
	addq	%rcx, %rdx
	movl	%eax, -3264(%rbp)
	movl	$16, -3260(%rbp)
	movl	-3260(%rbp), %eax
	movl	-3264(%rbp), %esi
	movl	%eax, %ecx
	rorl	%cl, %esi
	movl	%esi, %eax
	movl	%eax, (%rdx)
	movq	-512(%rbp), %rax
	leaq	0(,%rax,4), %rdx
	movq	-536(%rbp), %rax
	addq	%rdx, %rax
	movl	(%rax), %ecx
	movq	-504(%rbp), %rax
	leaq	0(,%rax,4), %rdx
	movq	-536(%rbp), %rax
	addq	%rdx, %rax
	movl	(%rax), %edx
	movq	-512(%rbp), %rax
	leaq	0(,%rax,4), %rsi
	movq	-536(%rbp), %rax
	addq	%rsi, %rax
	addl	%ecx, %edx
	movl	%edx, (%rax)
	movq	-520(%rbp), %rax
	leaq	0(,%rax,4), %rdx
	movq	-536(%rbp), %rax
	addq	%rdx, %rax
	movl	(%rax), %edx
	movq	-512(%rbp), %rax
	leaq	0(,%rax,4), %rcx
	movq	-536(%rbp), %rax
	addq	%rcx, %rax
	movl	(%rax), %eax
	xorl	%edx, %eax
	movq	-520(%rbp), %rdx
	leaq	0(,%rdx,4), %rcx
	movq	-536(%rbp), %rdx
	addq	%rcx, %rdx
	movl	%eax, -3256(%rbp)
	movl	$12, -3252(%rbp)
	movl	-3252(%rbp), %eax
	movl	-3256(%rbp), %esi
	movl	%eax, %ecx
	rorl	%cl, %esi
	movl	%esi, %eax
	movl	%eax, (%rdx)
	movq	-528(%rbp), %rax
	leaq	0(,%rax,4), %rdx
	movq	-536(%rbp), %rax
	addq	%rdx, %rax
	movl	(%rax), %edx
	movq	-520(%rbp), %rax
	leaq	0(,%rax,4), %rcx
	movq	-536(%rbp), %rax
	addq	%rcx, %rax
	movl	(%rax), %eax
	leal	(%rdx,%rax), %ecx
	movq	-528(%rbp), %rax
	leaq	0(,%rax,4), %rdx
	movq	-536(%rbp), %rax
	addq	%rdx, %rax
	movl	-3268(%rbp), %edx
	addl	%ecx, %edx
	movl	%edx, (%rax)
	movq	-504(%rbp), %rax
	leaq	0(,%rax,4), %rdx
	movq	-536(%rbp), %rax
	addq	%rdx, %rax
	movl	(%rax), %edx
	movq	-528(%rbp), %rax
	leaq	0(,%rax,4), %rcx
	movq	-536(%rbp), %rax
	addq	%rcx, %rax
	movl	(%rax), %eax
	xorl	%edx, %eax
	movq	-504(%rbp), %rdx
	leaq	0(,%rdx,4), %rcx
	movq	-536(%rbp), %rdx
	addq	%rcx, %rdx
	movl	%eax, -3248(%rbp)
	movl	$8, -3244(%rbp)
	movl	-3244(%rbp), %eax
	movl	-3248(%rbp), %esi
	movl	%eax, %ecx
	rorl	%cl, %esi
	movl	%esi, %eax
	movl	%eax, (%rdx)
	movq	-512(%rbp), %rax
	leaq	0(,%rax,4), %rdx
	movq	-536(%rbp), %rax
	addq	%rdx, %rax
	movl	(%rax), %ecx
	movq	-504(%rbp), %rax
	leaq	0(,%rax,4), %rdx
	movq	-536(%rbp), %rax
	addq	%rdx, %rax
	movl	(%rax), %edx
	movq	-512(%rbp), %rax
	leaq	0(,%rax,4), %rsi
	movq	-536(%rbp), %rax
	addq	%rsi, %rax
	addl	%ecx, %edx
	movl	%edx, (%rax)
	movq	-520(%rbp), %rax
	leaq	0(,%rax,4), %rdx
	movq	-536(%rbp), %rax
	addq	%rdx, %rax
	movl	(%rax), %edx
	movq	-512(%rbp), %rax
	leaq	0(,%rax,4), %rcx
	movq	-536(%rbp), %rax
	addq	%rcx, %rax
	movl	(%rax), %eax
	xorl	%edx, %eax
	movq	-520(%rbp), %rdx
	leaq	0(,%rdx,4), %rcx
	movq	-536(%rbp), %rdx
	addq	%rcx, %rdx
	movl	%eax, -3240(%rbp)
	movl	$7, -3236(%rbp)
	movl	-3236(%rbp), %eax
	movl	-3240(%rbp), %esi
	movl	%eax, %ecx
	rorl	%cl, %esi
	movl	%esi, %eax
	movl	%eax, (%rdx)
	nop
	nop
	movq	-2912(%rbp), %rax
	movq	%rax, -496(%rbp)
	leaq	-80(%rbp), %rax
	movq	%rax, -488(%rbp)
	movq	$6, -480(%rbp)
	movq	-480(%rbp), %rax
	salq	$4, %rax
	movq	%rax, %rdx
	leaq	MSG_SCHEDULE(%rip), %rax
	addq	%rdx, %rax
	movq	%rax, -472(%rbp)
	movq	-472(%rbp), %rax
	addq	$1, %rax
	movzbl	(%rax), %eax
	movzbl	%al, %eax
	leaq	0(,%rax,4), %rdx
	movq	-488(%rbp), %rax
	addq	%rdx, %rax
	movl	(%rax), %eax
	movq	-472(%rbp), %rdx
	movzbl	(%rdx), %edx
	movzbl	%dl, %edx
	leaq	0(,%rdx,4), %rcx
	movq	-488(%rbp), %rdx
	addq	%rcx, %rdx
	movl	(%rdx), %edx
	movq	-496(%rbp), %rcx
	movq	%rcx, -464(%rbp)
	movq	$0, -456(%rbp)
	movq	$4, -448(%rbp)
	movq	$8, -440(%rbp)
	movq	$12, -432(%rbp)
	movl	%edx, -3232(%rbp)
	movl	%eax, -3228(%rbp)
	movq	-456(%rbp), %rax
	leaq	0(,%rax,4), %rdx
	movq	-464(%rbp), %rax
	addq	%rdx, %rax
	movl	(%rax), %edx
	movq	-448(%rbp), %rax
	leaq	0(,%rax,4), %rcx
	movq	-464(%rbp), %rax
	addq	%rcx, %rax
	movl	(%rax), %eax
	leal	(%rdx,%rax), %ecx
	movq	-456(%rbp), %rax
	leaq	0(,%rax,4), %rdx
	movq	-464(%rbp), %rax
	addq	%rdx, %rax
	movl	-3232(%rbp), %edx
	addl	%ecx, %edx
	movl	%edx, (%rax)
	movq	-432(%rbp), %rax
	leaq	0(,%rax,4), %rdx
	movq	-464(%rbp), %rax
	addq	%rdx, %rax
	movl	(%rax), %edx
	movq	-456(%rbp), %rax
	leaq	0(,%rax,4), %rcx
	movq	-464(%rbp), %rax
	addq	%rcx, %rax
	movl	(%rax), %eax
	xorl	%edx, %eax
	movq	-432(%rbp), %rdx
	leaq	0(,%rdx,4), %rcx
	movq	-464(%rbp), %rdx
	addq	%rcx, %rdx
	movl	%eax, -3224(%rbp)
	movl	$16, -3220(%rbp)
	movl	-3220(%rbp), %eax
	movl	-3224(%rbp), %esi
	movl	%eax, %ecx
	rorl	%cl, %esi
	movl	%esi, %eax
	movl	%eax, (%rdx)
	movq	-440(%rbp), %rax
	leaq	0(,%rax,4), %rdx
	movq	-464(%rbp), %rax
	addq	%rdx, %rax
	movl	(%rax), %ecx
	movq	-432(%rbp), %rax
	leaq	0(,%rax,4), %rdx
	movq	-464(%rbp), %rax
	addq	%rdx, %rax
	movl	(%rax), %edx
	movq	-440(%rbp), %rax
	leaq	0(,%rax,4), %rsi
	movq	-464(%rbp), %rax
	addq	%rsi, %rax
	addl	%ecx, %edx
	movl	%edx, (%rax)
	movq	-448(%rbp), %rax
	leaq	0(,%rax,4), %rdx
	movq	-464(%rbp), %rax
	addq	%rdx, %rax
	movl	(%rax), %edx
	movq	-440(%rbp), %rax
	leaq	0(,%rax,4), %rcx
	movq	-464(%rbp), %rax
	addq	%rcx, %rax
	movl	(%rax), %eax
	xorl	%edx, %eax
	movq	-448(%rbp), %rdx
	leaq	0(,%rdx,4), %rcx
	movq	-464(%rbp), %rdx
	addq	%rcx, %rdx
	movl	%eax, -3216(%rbp)
	movl	$12, -3212(%rbp)
	movl	-3212(%rbp), %eax
	movl	-3216(%rbp), %esi
	movl	%eax, %ecx
	rorl	%cl, %esi
	movl	%esi, %eax
	movl	%eax, (%rdx)
	movq	-456(%rbp), %rax
	leaq	0(,%rax,4), %rdx
	movq	-464(%rbp), %rax
	addq	%rdx, %rax
	movl	(%rax), %edx
	movq	-448(%rbp), %rax
	leaq	0(,%rax,4), %rcx
	movq	-464(%rbp), %rax
	addq	%rcx, %rax
	movl	(%rax), %eax
	leal	(%rdx,%rax), %ecx
	movq	-456(%rbp), %rax
	leaq	0(,%rax,4), %rdx
	movq	-464(%rbp), %rax
	addq	%rdx, %rax
	movl	-3228(%rbp), %edx
	addl	%ecx, %edx
	movl	%edx, (%rax)
	movq	-432(%rbp), %rax
	leaq	0(,%rax,4), %rdx
	movq	-464(%rbp), %rax
	addq	%rdx, %rax
	movl	(%rax), %edx
	movq	-456(%rbp), %rax
	leaq	0(,%rax,4), %rcx
	movq	-464(%rbp), %rax
	addq	%rcx, %rax
	movl	(%rax), %eax
	xorl	%edx, %eax
	movq	-432(%rbp), %rdx
	leaq	0(,%rdx,4), %rcx
	movq	-464(%rbp), %rdx
	addq	%rcx, %rdx
	movl	%eax, -3208(%rbp)
	movl	$8, -3204(%rbp)
	movl	-3204(%rbp), %eax
	movl	-3208(%rbp), %esi
	movl	%eax, %ecx
	rorl	%cl, %esi
	movl	%esi, %eax
	movl	%eax, (%rdx)
	movq	-440(%rbp), %rax
	leaq	0(,%rax,4), %rdx
	movq	-464(%rbp), %rax
	addq	%rdx, %rax
	movl	(%rax), %ecx
	movq	-432(%rbp), %rax
	leaq	0(,%rax,4), %rdx
	movq	-464(%rbp), %rax
	addq	%rdx, %rax
	movl	(%rax), %edx
	movq	-440(%rbp), %rax
	leaq	0(,%rax,4), %rsi
	movq	-464(%rbp), %rax
	addq	%rsi, %rax
	addl	%ecx, %edx
	movl	%edx, (%rax)
	movq	-448(%rbp), %rax
	leaq	0(,%rax,4), %rdx
	movq	-464(%rbp), %rax
	addq	%rdx, %rax
	movl	(%rax), %edx
	movq	-440(%rbp), %rax
	leaq	0(,%rax,4), %rcx
	movq	-464(%rbp), %rax
	addq	%rcx, %rax
	movl	(%rax), %eax
	xorl	%edx, %eax
	movq	-448(%rbp), %rdx
	leaq	0(,%rdx,4), %rcx
	movq	-464(%rbp), %rdx
	addq	%rcx, %rdx
	movl	%eax, -3200(%rbp)
	movl	$7, -3196(%rbp)
	movl	-3196(%rbp), %eax
	movl	-3200(%rbp), %esi
	movl	%eax, %ecx
	rorl	%cl, %esi
	movl	%esi, %eax
	movl	%eax, (%rdx)
	nop
	movq	-472(%rbp), %rax
	addq	$3, %rax
	movzbl	(%rax), %eax
	movzbl	%al, %eax
	leaq	0(,%rax,4), %rdx
	movq	-488(%rbp), %rax
	addq	%rdx, %rax
	movl	(%rax), %eax
	movq	-472(%rbp), %rdx
	addq	$2, %rdx
	movzbl	(%rdx), %edx
	movzbl	%dl, %edx
	leaq	0(,%rdx,4), %rcx
	movq	-488(%rbp), %rdx
	addq	%rcx, %rdx
	movl	(%rdx), %edx
	movq	-496(%rbp), %rcx
	movq	%rcx, -424(%rbp)
	movq	$1, -416(%rbp)
	movq	$5, -408(%rbp)
	movq	$9, -400(%rbp)
	movq	$13, -392(%rbp)
	movl	%edx, -3192(%rbp)
	movl	%eax, -3188(%rbp)
	movq	-416(%rbp), %rax
	leaq	0(,%rax,4), %rdx
	movq	-424(%rbp), %rax
	addq	%rdx, %rax
	movl	(%rax), %edx
	movq	-408(%rbp), %rax
	leaq	0(,%rax,4), %rcx
	movq	-424(%rbp), %rax
	addq	%rcx, %rax
	movl	(%rax), %eax
	leal	(%rdx,%rax), %ecx
	movq	-416(%rbp), %rax
	leaq	0(,%rax,4), %rdx
	movq	-424(%rbp), %rax
	addq	%rdx, %rax
	movl	-3192(%rbp), %edx
	addl	%ecx, %edx
	movl	%edx, (%rax)
	movq	-392(%rbp), %rax
	leaq	0(,%rax,4), %rdx
	movq	-424(%rbp), %rax
	addq	%rdx, %rax
	movl	(%rax), %edx
	movq	-416(%rbp), %rax
	leaq	0(,%rax,4), %rcx
	movq	-424(%rbp), %rax
	addq	%rcx, %rax
	movl	(%rax), %eax
	xorl	%edx, %eax
	movq	-392(%rbp), %rdx
	leaq	0(,%rdx,4), %rcx
	movq	-424(%rbp), %rdx
	addq	%rcx, %rdx
	movl	%eax, -3184(%rbp)
	movl	$16, -3180(%rbp)
	movl	-3180(%rbp), %eax
	movl	-3184(%rbp), %esi
	movl	%eax, %ecx
	rorl	%cl, %esi
	movl	%esi, %eax
	movl	%eax, (%rdx)
	movq	-400(%rbp), %rax
	leaq	0(,%rax,4), %rdx
	movq	-424(%rbp), %rax
	addq	%rdx, %rax
	movl	(%rax), %ecx
	movq	-392(%rbp), %rax
	leaq	0(,%rax,4), %rdx
	movq	-424(%rbp), %rax
	addq	%rdx, %rax
	movl	(%rax), %edx
	movq	-400(%rbp), %rax
	leaq	0(,%rax,4), %rsi
	movq	-424(%rbp), %rax
	addq	%rsi, %rax
	addl	%ecx, %edx
	movl	%edx, (%rax)
	movq	-408(%rbp), %rax
	leaq	0(,%rax,4), %rdx
	movq	-424(%rbp), %rax
	addq	%rdx, %rax
	movl	(%rax), %edx
	movq	-400(%rbp), %rax
	leaq	0(,%rax,4), %rcx
	movq	-424(%rbp), %rax
	addq	%rcx, %rax
	movl	(%rax), %eax
	xorl	%edx, %eax
	movq	-408(%rbp), %rdx
	leaq	0(,%rdx,4), %rcx
	movq	-424(%rbp), %rdx
	addq	%rcx, %rdx
	movl	%eax, -3176(%rbp)
	movl	$12, -3172(%rbp)
	movl	-3172(%rbp), %eax
	movl	-3176(%rbp), %esi
	movl	%eax, %ecx
	rorl	%cl, %esi
	movl	%esi, %eax
	movl	%eax, (%rdx)
	movq	-416(%rbp), %rax
	leaq	0(,%rax,4), %rdx
	movq	-424(%rbp), %rax
	addq	%rdx, %rax
	movl	(%rax), %edx
	movq	-408(%rbp), %rax
	leaq	0(,%rax,4), %rcx
	movq	-424(%rbp), %rax
	addq	%rcx, %rax
	movl	(%rax), %eax
	leal	(%rdx,%rax), %ecx
	movq	-416(%rbp), %rax
	leaq	0(,%rax,4), %rdx
	movq	-424(%rbp), %rax
	addq	%rdx, %rax
	movl	-3188(%rbp), %edx
	addl	%ecx, %edx
	movl	%edx, (%rax)
	movq	-392(%rbp), %rax
	leaq	0(,%rax,4), %rdx
	movq	-424(%rbp), %rax
	addq	%rdx, %rax
	movl	(%rax), %edx
	movq	-416(%rbp), %rax
	leaq	0(,%rax,4), %rcx
	movq	-424(%rbp), %rax
	addq	%rcx, %rax
	movl	(%rax), %eax
	xorl	%edx, %eax
	movq	-392(%rbp), %rdx
	leaq	0(,%rdx,4), %rcx
	movq	-424(%rbp), %rdx
	addq	%rcx, %rdx
	movl	%eax, -3168(%rbp)
	movl	$8, -3164(%rbp)
	movl	-3164(%rbp), %eax
	movl	-3168(%rbp), %esi
	movl	%eax, %ecx
	rorl	%cl, %esi
	movl	%esi, %eax
	movl	%eax, (%rdx)
	movq	-400(%rbp), %rax
	leaq	0(,%rax,4), %rdx
	movq	-424(%rbp), %rax
	addq	%rdx, %rax
	movl	(%rax), %ecx
	movq	-392(%rbp), %rax
	leaq	0(,%rax,4), %rdx
	movq	-424(%rbp), %rax
	addq	%rdx, %rax
	movl	(%rax), %edx
	movq	-400(%rbp), %rax
	leaq	0(,%rax,4), %rsi
	movq	-424(%rbp), %rax
	addq	%rsi, %rax
	addl	%ecx, %edx
	movl	%edx, (%rax)
	movq	-408(%rbp), %rax
	leaq	0(,%rax,4), %rdx
	movq	-424(%rbp), %rax
	addq	%rdx, %rax
	movl	(%rax), %edx
	movq	-400(%rbp), %rax
	leaq	0(,%rax,4), %rcx
	movq	-424(%rbp), %rax
	addq	%rcx, %rax
	movl	(%rax), %eax
	xorl	%edx, %eax
	movq	-408(%rbp), %rdx
	leaq	0(,%rdx,4), %rcx
	movq	-424(%rbp), %rdx
	addq	%rcx, %rdx
	movl	%eax, -3160(%rbp)
	movl	$7, -3156(%rbp)
	movl	-3156(%rbp), %eax
	movl	-3160(%rbp), %esi
	movl	%eax, %ecx
	rorl	%cl, %esi
	movl	%esi, %eax
	movl	%eax, (%rdx)
	nop
	movq	-472(%rbp), %rax
	addq	$5, %rax
	movzbl	(%rax), %eax
	movzbl	%al, %eax
	leaq	0(,%rax,4), %rdx
	movq	-488(%rbp), %rax
	addq	%rdx, %rax
	movl	(%rax), %eax
	movq	-472(%rbp), %rdx
	addq	$4, %rdx
	movzbl	(%rdx), %edx
	movzbl	%dl, %edx
	leaq	0(,%rdx,4), %rcx
	movq	-488(%rbp), %rdx
	addq	%rcx, %rdx
	movl	(%rdx), %edx
	movq	-496(%rbp), %rcx
	movq	%rcx, -384(%rbp)
	movq	$2, -376(%rbp)
	movq	$6, -368(%rbp)
	movq	$10, -360(%rbp)
	movq	$14, -352(%rbp)
	movl	%edx, -3152(%rbp)
	movl	%eax, -3148(%rbp)
	movq	-376(%rbp), %rax
	leaq	0(,%rax,4), %rdx
	movq	-384(%rbp), %rax
	addq	%rdx, %rax
	movl	(%rax), %edx
	movq	-368(%rbp), %rax
	leaq	0(,%rax,4), %rcx
	movq	-384(%rbp), %rax
	addq	%rcx, %rax
	movl	(%rax), %eax
	leal	(%rdx,%rax), %ecx
	movq	-376(%rbp), %rax
	leaq	0(,%rax,4), %rdx
	movq	-384(%rbp), %rax
	addq	%rdx, %rax
	movl	-3152(%rbp), %edx
	addl	%ecx, %edx
	movl	%edx, (%rax)
	movq	-352(%rbp), %rax
	leaq	0(,%rax,4), %rdx
	movq	-384(%rbp), %rax
	addq	%rdx, %rax
	movl	(%rax), %edx
	movq	-376(%rbp), %rax
	leaq	0(,%rax,4), %rcx
	movq	-384(%rbp), %rax
	addq	%rcx, %rax
	movl	(%rax), %eax
	xorl	%edx, %eax
	movq	-352(%rbp), %rdx
	leaq	0(,%rdx,4), %rcx
	movq	-384(%rbp), %rdx
	addq	%rcx, %rdx
	movl	%eax, -3144(%rbp)
	movl	$16, -3140(%rbp)
	movl	-3140(%rbp), %eax
	movl	-3144(%rbp), %esi
	movl	%eax, %ecx
	rorl	%cl, %esi
	movl	%esi, %eax
	movl	%eax, (%rdx)
	movq	-360(%rbp), %rax
	leaq	0(,%rax,4), %rdx
	movq	-384(%rbp), %rax
	addq	%rdx, %rax
	movl	(%rax), %ecx
	movq	-352(%rbp), %rax
	leaq	0(,%rax,4), %rdx
	movq	-384(%rbp), %rax
	addq	%rdx, %rax
	movl	(%rax), %edx
	movq	-360(%rbp), %rax
	leaq	0(,%rax,4), %rsi
	movq	-384(%rbp), %rax
	addq	%rsi, %rax
	addl	%ecx, %edx
	movl	%edx, (%rax)
	movq	-368(%rbp), %rax
	leaq	0(,%rax,4), %rdx
	movq	-384(%rbp), %rax
	addq	%rdx, %rax
	movl	(%rax), %edx
	movq	-360(%rbp), %rax
	leaq	0(,%rax,4), %rcx
	movq	-384(%rbp), %rax
	addq	%rcx, %rax
	movl	(%rax), %eax
	xorl	%edx, %eax
	movq	-368(%rbp), %rdx
	leaq	0(,%rdx,4), %rcx
	movq	-384(%rbp), %rdx
	addq	%rcx, %rdx
	movl	%eax, -3136(%rbp)
	movl	$12, -3132(%rbp)
	movl	-3132(%rbp), %eax
	movl	-3136(%rbp), %esi
	movl	%eax, %ecx
	rorl	%cl, %esi
	movl	%esi, %eax
	movl	%eax, (%rdx)
	movq	-376(%rbp), %rax
	leaq	0(,%rax,4), %rdx
	movq	-384(%rbp), %rax
	addq	%rdx, %rax
	movl	(%rax), %edx
	movq	-368(%rbp), %rax
	leaq	0(,%rax,4), %rcx
	movq	-384(%rbp), %rax
	addq	%rcx, %rax
	movl	(%rax), %eax
	leal	(%rdx,%rax), %ecx
	movq	-376(%rbp), %rax
	leaq	0(,%rax,4), %rdx
	movq	-384(%rbp), %rax
	addq	%rdx, %rax
	movl	-3148(%rbp), %edx
	addl	%ecx, %edx
	movl	%edx, (%rax)
	movq	-352(%rbp), %rax
	leaq	0(,%rax,4), %rdx
	movq	-384(%rbp), %rax
	addq	%rdx, %rax
	movl	(%rax), %edx
	movq	-376(%rbp), %rax
	leaq	0(,%rax,4), %rcx
	movq	-384(%rbp), %rax
	addq	%rcx, %rax
	movl	(%rax), %eax
	xorl	%edx, %eax
	movq	-352(%rbp), %rdx
	leaq	0(,%rdx,4), %rcx
	movq	-384(%rbp), %rdx
	addq	%rcx, %rdx
	movl	%eax, -3128(%rbp)
	movl	$8, -3124(%rbp)
	movl	-3124(%rbp), %eax
	movl	-3128(%rbp), %esi
	movl	%eax, %ecx
	rorl	%cl, %esi
	movl	%esi, %eax
	movl	%eax, (%rdx)
	movq	-360(%rbp), %rax
	leaq	0(,%rax,4), %rdx
	movq	-384(%rbp), %rax
	addq	%rdx, %rax
	movl	(%rax), %ecx
	movq	-352(%rbp), %rax
	leaq	0(,%rax,4), %rdx
	movq	-384(%rbp), %rax
	addq	%rdx, %rax
	movl	(%rax), %edx
	movq	-360(%rbp), %rax
	leaq	0(,%rax,4), %rsi
	movq	-384(%rbp), %rax
	addq	%rsi, %rax
	addl	%ecx, %edx
	movl	%edx, (%rax)
	movq	-368(%rbp), %rax
	leaq	0(,%rax,4), %rdx
	movq	-384(%rbp), %rax
	addq	%rdx, %rax
	movl	(%rax), %edx
	movq	-360(%rbp), %rax
	leaq	0(,%rax,4), %rcx
	movq	-384(%rbp), %rax
	addq	%rcx, %rax
	movl	(%rax), %eax
	xorl	%edx, %eax
	movq	-368(%rbp), %rdx
	leaq	0(,%rdx,4), %rcx
	movq	-384(%rbp), %rdx
	addq	%rcx, %rdx
	movl	%eax, -3120(%rbp)
	movl	$7, -3116(%rbp)
	movl	-3116(%rbp), %eax
	movl	-3120(%rbp), %esi
	movl	%eax, %ecx
	rorl	%cl, %esi
	movl	%esi, %eax
	movl	%eax, (%rdx)
	nop
	movq	-472(%rbp), %rax
	addq	$7, %rax
	movzbl	(%rax), %eax
	movzbl	%al, %eax
	leaq	0(,%rax,4), %rdx
	movq	-488(%rbp), %rax
	addq	%rdx, %rax
	movl	(%rax), %eax
	movq	-472(%rbp), %rdx
	addq	$6, %rdx
	movzbl	(%rdx), %edx
	movzbl	%dl, %edx
	leaq	0(,%rdx,4), %rcx
	movq	-488(%rbp), %rdx
	addq	%rcx, %rdx
	movl	(%rdx), %edx
	movq	-496(%rbp), %rcx
	movq	%rcx, -344(%rbp)
	movq	$3, -336(%rbp)
	movq	$7, -328(%rbp)
	movq	$11, -320(%rbp)
	movq	$15, -312(%rbp)
	movl	%edx, -3112(%rbp)
	movl	%eax, -3108(%rbp)
	movq	-336(%rbp), %rax
	leaq	0(,%rax,4), %rdx
	movq	-344(%rbp), %rax
	addq	%rdx, %rax
	movl	(%rax), %edx
	movq	-328(%rbp), %rax
	leaq	0(,%rax,4), %rcx
	movq	-344(%rbp), %rax
	addq	%rcx, %rax
	movl	(%rax), %eax
	leal	(%rdx,%rax), %ecx
	movq	-336(%rbp), %rax
	leaq	0(,%rax,4), %rdx
	movq	-344(%rbp), %rax
	addq	%rdx, %rax
	movl	-3112(%rbp), %edx
	addl	%ecx, %edx
	movl	%edx, (%rax)
	movq	-312(%rbp), %rax
	leaq	0(,%rax,4), %rdx
	movq	-344(%rbp), %rax
	addq	%rdx, %rax
	movl	(%rax), %edx
	movq	-336(%rbp), %rax
	leaq	0(,%rax,4), %rcx
	movq	-344(%rbp), %rax
	addq	%rcx, %rax
	movl	(%rax), %eax
	xorl	%edx, %eax
	movq	-312(%rbp), %rdx
	leaq	0(,%rdx,4), %rcx
	movq	-344(%rbp), %rdx
	addq	%rcx, %rdx
	movl	%eax, -3104(%rbp)
	movl	$16, -3100(%rbp)
	movl	-3100(%rbp), %eax
	movl	-3104(%rbp), %esi
	movl	%eax, %ecx
	rorl	%cl, %esi
	movl	%esi, %eax
	movl	%eax, (%rdx)
	movq	-320(%rbp), %rax
	leaq	0(,%rax,4), %rdx
	movq	-344(%rbp), %rax
	addq	%rdx, %rax
	movl	(%rax), %ecx
	movq	-312(%rbp), %rax
	leaq	0(,%rax,4), %rdx
	movq	-344(%rbp), %rax
	addq	%rdx, %rax
	movl	(%rax), %edx
	movq	-320(%rbp), %rax
	leaq	0(,%rax,4), %rsi
	movq	-344(%rbp), %rax
	addq	%rsi, %rax
	addl	%ecx, %edx
	movl	%edx, (%rax)
	movq	-328(%rbp), %rax
	leaq	0(,%rax,4), %rdx
	movq	-344(%rbp), %rax
	addq	%rdx, %rax
	movl	(%rax), %edx
	movq	-320(%rbp), %rax
	leaq	0(,%rax,4), %rcx
	movq	-344(%rbp), %rax
	addq	%rcx, %rax
	movl	(%rax), %eax
	xorl	%edx, %eax
	movq	-328(%rbp), %rdx
	leaq	0(,%rdx,4), %rcx
	movq	-344(%rbp), %rdx
	addq	%rcx, %rdx
	movl	%eax, -3096(%rbp)
	movl	$12, -3092(%rbp)
	movl	-3092(%rbp), %eax
	movl	-3096(%rbp), %esi
	movl	%eax, %ecx
	rorl	%cl, %esi
	movl	%esi, %eax
	movl	%eax, (%rdx)
	movq	-336(%rbp), %rax
	leaq	0(,%rax,4), %rdx
	movq	-344(%rbp), %rax
	addq	%rdx, %rax
	movl	(%rax), %edx
	movq	-328(%rbp), %rax
	leaq	0(,%rax,4), %rcx
	movq	-344(%rbp), %rax
	addq	%rcx, %rax
	movl	(%rax), %eax
	leal	(%rdx,%rax), %ecx
	movq	-336(%rbp), %rax
	leaq	0(,%rax,4), %rdx
	movq	-344(%rbp), %rax
	addq	%rdx, %rax
	movl	-3108(%rbp), %edx
	addl	%ecx, %edx
	movl	%edx, (%rax)
	movq	-312(%rbp), %rax
	leaq	0(,%rax,4), %rdx
	movq	-344(%rbp), %rax
	addq	%rdx, %rax
	movl	(%rax), %edx
	movq	-336(%rbp), %rax
	leaq	0(,%rax,4), %rcx
	movq	-344(%rbp), %rax
	addq	%rcx, %rax
	movl	(%rax), %eax
	xorl	%edx, %eax
	movq	-312(%rbp), %rdx
	leaq	0(,%rdx,4), %rcx
	movq	-344(%rbp), %rdx
	addq	%rcx, %rdx
	movl	%eax, -3088(%rbp)
	movl	$8, -3084(%rbp)
	movl	-3084(%rbp), %eax
	movl	-3088(%rbp), %esi
	movl	%eax, %ecx
	rorl	%cl, %esi
	movl	%esi, %eax
	movl	%eax, (%rdx)
	movq	-320(%rbp), %rax
	leaq	0(,%rax,4), %rdx
	movq	-344(%rbp), %rax
	addq	%rdx, %rax
	movl	(%rax), %ecx
	movq	-312(%rbp), %rax
	leaq	0(,%rax,4), %rdx
	movq	-344(%rbp), %rax
	addq	%rdx, %rax
	movl	(%rax), %edx
	movq	-320(%rbp), %rax
	leaq	0(,%rax,4), %rsi
	movq	-344(%rbp), %rax
	addq	%rsi, %rax
	addl	%ecx, %edx
	movl	%edx, (%rax)
	movq	-328(%rbp), %rax
	leaq	0(,%rax,4), %rdx
	movq	-344(%rbp), %rax
	addq	%rdx, %rax
	movl	(%rax), %edx
	movq	-320(%rbp), %rax
	leaq	0(,%rax,4), %rcx
	movq	-344(%rbp), %rax
	addq	%rcx, %rax
	movl	(%rax), %eax
	xorl	%edx, %eax
	movq	-328(%rbp), %rdx
	leaq	0(,%rdx,4), %rcx
	movq	-344(%rbp), %rdx
	addq	%rcx, %rdx
	movl	%eax, -3080(%rbp)
	movl	$7, -3076(%rbp)
	movl	-3076(%rbp), %eax
	movl	-3080(%rbp), %esi
	movl	%eax, %ecx
	rorl	%cl, %esi
	movl	%esi, %eax
	movl	%eax, (%rdx)
	nop
	movq	-472(%rbp), %rax
	addq	$9, %rax
	movzbl	(%rax), %eax
	movzbl	%al, %eax
	leaq	0(,%rax,4), %rdx
	movq	-488(%rbp), %rax
	addq	%rdx, %rax
	movl	(%rax), %eax
	movq	-472(%rbp), %rdx
	addq	$8, %rdx
	movzbl	(%rdx), %edx
	movzbl	%dl, %edx
	leaq	0(,%rdx,4), %rcx
	movq	-488(%rbp), %rdx
	addq	%rcx, %rdx
	movl	(%rdx), %edx
	movq	-496(%rbp), %rcx
	movq	%rcx, -304(%rbp)
	movq	$0, -296(%rbp)
	movq	$5, -288(%rbp)
	movq	$10, -280(%rbp)
	movq	$15, -272(%rbp)
	movl	%edx, -3072(%rbp)
	movl	%eax, -3068(%rbp)
	movq	-296(%rbp), %rax
	leaq	0(,%rax,4), %rdx
	movq	-304(%rbp), %rax
	addq	%rdx, %rax
	movl	(%rax), %edx
	movq	-288(%rbp), %rax
	leaq	0(,%rax,4), %rcx
	movq	-304(%rbp), %rax
	addq	%rcx, %rax
	movl	(%rax), %eax
	leal	(%rdx,%rax), %ecx
	movq	-296(%rbp), %rax
	leaq	0(,%rax,4), %rdx
	movq	-304(%rbp), %rax
	addq	%rdx, %rax
	movl	-3072(%rbp), %edx
	addl	%ecx, %edx
	movl	%edx, (%rax)
	movq	-272(%rbp), %rax
	leaq	0(,%rax,4), %rdx
	movq	-304(%rbp), %rax
	addq	%rdx, %rax
	movl	(%rax), %edx
	movq	-296(%rbp), %rax
	leaq	0(,%rax,4), %rcx
	movq	-304(%rbp), %rax
	addq	%rcx, %rax
	movl	(%rax), %eax
	xorl	%edx, %eax
	movq	-272(%rbp), %rdx
	leaq	0(,%rdx,4), %rcx
	movq	-304(%rbp), %rdx
	addq	%rcx, %rdx
	movl	%eax, -3064(%rbp)
	movl	$16, -3060(%rbp)
	movl	-3060(%rbp), %eax
	movl	-3064(%rbp), %esi
	movl	%eax, %ecx
	rorl	%cl, %esi
	movl	%esi, %eax
	movl	%eax, (%rdx)
	movq	-280(%rbp), %rax
	leaq	0(,%rax,4), %rdx
	movq	-304(%rbp), %rax
	addq	%rdx, %rax
	movl	(%rax), %ecx
	movq	-272(%rbp), %rax
	leaq	0(,%rax,4), %rdx
	movq	-304(%rbp), %rax
	addq	%rdx, %rax
	movl	(%rax), %edx
	movq	-280(%rbp), %rax
	leaq	0(,%rax,4), %rsi
	movq	-304(%rbp), %rax
	addq	%rsi, %rax
	addl	%ecx, %edx
	movl	%edx, (%rax)
	movq	-288(%rbp), %rax
	leaq	0(,%rax,4), %rdx
	movq	-304(%rbp), %rax
	addq	%rdx, %rax
	movl	(%rax), %edx
	movq	-280(%rbp), %rax
	leaq	0(,%rax,4), %rcx
	movq	-304(%rbp), %rax
	addq	%rcx, %rax
	movl	(%rax), %eax
	xorl	%edx, %eax
	movq	-288(%rbp), %rdx
	leaq	0(,%rdx,4), %rcx
	movq	-304(%rbp), %rdx
	addq	%rcx, %rdx
	movl	%eax, -3056(%rbp)
	movl	$12, -3052(%rbp)
	movl	-3052(%rbp), %eax
	movl	-3056(%rbp), %esi
	movl	%eax, %ecx
	rorl	%cl, %esi
	movl	%esi, %eax
	movl	%eax, (%rdx)
	movq	-296(%rbp), %rax
	leaq	0(,%rax,4), %rdx
	movq	-304(%rbp), %rax
	addq	%rdx, %rax
	movl	(%rax), %edx
	movq	-288(%rbp), %rax
	leaq	0(,%rax,4), %rcx
	movq	-304(%rbp), %rax
	addq	%rcx, %rax
	movl	(%rax), %eax
	leal	(%rdx,%rax), %ecx
	movq	-296(%rbp), %rax
	leaq	0(,%rax,4), %rdx
	movq	-304(%rbp), %rax
	addq	%rdx, %rax
	movl	-3068(%rbp), %edx
	addl	%ecx, %edx
	movl	%edx, (%rax)
	movq	-272(%rbp), %rax
	leaq	0(,%rax,4), %rdx
	movq	-304(%rbp), %rax
	addq	%rdx, %rax
	movl	(%rax), %edx
	movq	-296(%rbp), %rax
	leaq	0(,%rax,4), %rcx
	movq	-304(%rbp), %rax
	addq	%rcx, %rax
	movl	(%rax), %eax
	xorl	%edx, %eax
	movq	-272(%rbp), %rdx
	leaq	0(,%rdx,4), %rcx
	movq	-304(%rbp), %rdx
	addq	%rcx, %rdx
	movl	%eax, -3048(%rbp)
	movl	$8, -3044(%rbp)
	movl	-3044(%rbp), %eax
	movl	-3048(%rbp), %esi
	movl	%eax, %ecx
	rorl	%cl, %esi
	movl	%esi, %eax
	movl	%eax, (%rdx)
	movq	-280(%rbp), %rax
	leaq	0(,%rax,4), %rdx
	movq	-304(%rbp), %rax
	addq	%rdx, %rax
	movl	(%rax), %ecx
	movq	-272(%rbp), %rax
	leaq	0(,%rax,4), %rdx
	movq	-304(%rbp), %rax
	addq	%rdx, %rax
	movl	(%rax), %edx
	movq	-280(%rbp), %rax
	leaq	0(,%rax,4), %rsi
	movq	-304(%rbp), %rax
	addq	%rsi, %rax
	addl	%ecx, %edx
	movl	%edx, (%rax)
	movq	-288(%rbp), %rax
	leaq	0(,%rax,4), %rdx
	movq	-304(%rbp), %rax
	addq	%rdx, %rax
	movl	(%rax), %edx
	movq	-280(%rbp), %rax
	leaq	0(,%rax,4), %rcx
	movq	-304(%rbp), %rax
	addq	%rcx, %rax
	movl	(%rax), %eax
	xorl	%edx, %eax
	movq	-288(%rbp), %rdx
	leaq	0(,%rdx,4), %rcx
	movq	-304(%rbp), %rdx
	addq	%rcx, %rdx
	movl	%eax, -3040(%rbp)
	movl	$7, -3036(%rbp)
	movl	-3036(%rbp), %eax
	movl	-3040(%rbp), %esi
	movl	%eax, %ecx
	rorl	%cl, %esi
	movl	%esi, %eax
	movl	%eax, (%rdx)
	nop
	movq	-472(%rbp), %rax
	addq	$11, %rax
	movzbl	(%rax), %eax
	movzbl	%al, %eax
	leaq	0(,%rax,4), %rdx
	movq	-488(%rbp), %rax
	addq	%rdx, %rax
	movl	(%rax), %eax
	movq	-472(%rbp), %rdx
	addq	$10, %rdx
	movzbl	(%rdx), %edx
	movzbl	%dl, %edx
	leaq	0(,%rdx,4), %rcx
	movq	-488(%rbp), %rdx
	addq	%rcx, %rdx
	movl	(%rdx), %edx
	movq	-496(%rbp), %rcx
	movq	%rcx, -264(%rbp)
	movq	$1, -256(%rbp)
	movq	$6, -248(%rbp)
	movq	$11, -240(%rbp)
	movq	$12, -232(%rbp)
	movl	%edx, -3032(%rbp)
	movl	%eax, -3028(%rbp)
	movq	-256(%rbp), %rax
	leaq	0(,%rax,4), %rdx
	movq	-264(%rbp), %rax
	addq	%rdx, %rax
	movl	(%rax), %edx
	movq	-248(%rbp), %rax
	leaq	0(,%rax,4), %rcx
	movq	-264(%rbp), %rax
	addq	%rcx, %rax
	movl	(%rax), %eax
	leal	(%rdx,%rax), %ecx
	movq	-256(%rbp), %rax
	leaq	0(,%rax,4), %rdx
	movq	-264(%rbp), %rax
	addq	%rdx, %rax
	movl	-3032(%rbp), %edx
	addl	%ecx, %edx
	movl	%edx, (%rax)
	movq	-232(%rbp), %rax
	leaq	0(,%rax,4), %rdx
	movq	-264(%rbp), %rax
	addq	%rdx, %rax
	movl	(%rax), %edx
	movq	-256(%rbp), %rax
	leaq	0(,%rax,4), %rcx
	movq	-264(%rbp), %rax
	addq	%rcx, %rax
	movl	(%rax), %eax
	xorl	%edx, %eax
	movq	-232(%rbp), %rdx
	leaq	0(,%rdx,4), %rcx
	movq	-264(%rbp), %rdx
	addq	%rcx, %rdx
	movl	%eax, -3024(%rbp)
	movl	$16, -3020(%rbp)
	movl	-3020(%rbp), %eax
	movl	-3024(%rbp), %esi
	movl	%eax, %ecx
	rorl	%cl, %esi
	movl	%esi, %eax
	movl	%eax, (%rdx)
	movq	-240(%rbp), %rax
	leaq	0(,%rax,4), %rdx
	movq	-264(%rbp), %rax
	addq	%rdx, %rax
	movl	(%rax), %ecx
	movq	-232(%rbp), %rax
	leaq	0(,%rax,4), %rdx
	movq	-264(%rbp), %rax
	addq	%rdx, %rax
	movl	(%rax), %edx
	movq	-240(%rbp), %rax
	leaq	0(,%rax,4), %rsi
	movq	-264(%rbp), %rax
	addq	%rsi, %rax
	addl	%ecx, %edx
	movl	%edx, (%rax)
	movq	-248(%rbp), %rax
	leaq	0(,%rax,4), %rdx
	movq	-264(%rbp), %rax
	addq	%rdx, %rax
	movl	(%rax), %edx
	movq	-240(%rbp), %rax
	leaq	0(,%rax,4), %rcx
	movq	-264(%rbp), %rax
	addq	%rcx, %rax
	movl	(%rax), %eax
	xorl	%edx, %eax
	movq	-248(%rbp), %rdx
	leaq	0(,%rdx,4), %rcx
	movq	-264(%rbp), %rdx
	addq	%rcx, %rdx
	movl	%eax, -3016(%rbp)
	movl	$12, -3012(%rbp)
	movl	-3012(%rbp), %eax
	movl	-3016(%rbp), %esi
	movl	%eax, %ecx
	rorl	%cl, %esi
	movl	%esi, %eax
	movl	%eax, (%rdx)
	movq	-256(%rbp), %rax
	leaq	0(,%rax,4), %rdx
	movq	-264(%rbp), %rax
	addq	%rdx, %rax
	movl	(%rax), %edx
	movq	-248(%rbp), %rax
	leaq	0(,%rax,4), %rcx
	movq	-264(%rbp), %rax
	addq	%rcx, %rax
	movl	(%rax), %eax
	leal	(%rdx,%rax), %ecx
	movq	-256(%rbp), %rax
	leaq	0(,%rax,4), %rdx
	movq	-264(%rbp), %rax
	addq	%rdx, %rax
	movl	-3028(%rbp), %edx
	addl	%ecx, %edx
	movl	%edx, (%rax)
	movq	-232(%rbp), %rax
	leaq	0(,%rax,4), %rdx
	movq	-264(%rbp), %rax
	addq	%rdx, %rax
	movl	(%rax), %edx
	movq	-256(%rbp), %rax
	leaq	0(,%rax,4), %rcx
	movq	-264(%rbp), %rax
	addq	%rcx, %rax
	movl	(%rax), %eax
	xorl	%edx, %eax
	movq	-232(%rbp), %rdx
	leaq	0(,%rdx,4), %rcx
	movq	-264(%rbp), %rdx
	addq	%rcx, %rdx
	movl	%eax, -3008(%rbp)
	movl	$8, -3004(%rbp)
	movl	-3004(%rbp), %eax
	movl	-3008(%rbp), %esi
	movl	%eax, %ecx
	rorl	%cl, %esi
	movl	%esi, %eax
	movl	%eax, (%rdx)
	movq	-240(%rbp), %rax
	leaq	0(,%rax,4), %rdx
	movq	-264(%rbp), %rax
	addq	%rdx, %rax
	movl	(%rax), %ecx
	movq	-232(%rbp), %rax
	leaq	0(,%rax,4), %rdx
	movq	-264(%rbp), %rax
	addq	%rdx, %rax
	movl	(%rax), %edx
	movq	-240(%rbp), %rax
	leaq	0(,%rax,4), %rsi
	movq	-264(%rbp), %rax
	addq	%rsi, %rax
	addl	%ecx, %edx
	movl	%edx, (%rax)
	movq	-248(%rbp), %rax
	leaq	0(,%rax,4), %rdx
	movq	-264(%rbp), %rax
	addq	%rdx, %rax
	movl	(%rax), %edx
	movq	-240(%rbp), %rax
	leaq	0(,%rax,4), %rcx
	movq	-264(%rbp), %rax
	addq	%rcx, %rax
	movl	(%rax), %eax
	xorl	%edx, %eax
	movq	-248(%rbp), %rdx
	leaq	0(,%rdx,4), %rcx
	movq	-264(%rbp), %rdx
	addq	%rcx, %rdx
	movl	%eax, -3000(%rbp)
	movl	$7, -2996(%rbp)
	movl	-2996(%rbp), %eax
	movl	-3000(%rbp), %esi
	movl	%eax, %ecx
	rorl	%cl, %esi
	movl	%esi, %eax
	movl	%eax, (%rdx)
	nop
	movq	-472(%rbp), %rax
	addq	$13, %rax
	movzbl	(%rax), %eax
	movzbl	%al, %eax
	leaq	0(,%rax,4), %rdx
	movq	-488(%rbp), %rax
	addq	%rdx, %rax
	movl	(%rax), %eax
	movq	-472(%rbp), %rdx
	addq	$12, %rdx
	movzbl	(%rdx), %edx
	movzbl	%dl, %edx
	leaq	0(,%rdx,4), %rcx
	movq	-488(%rbp), %rdx
	addq	%rcx, %rdx
	movl	(%rdx), %edx
	movq	-496(%rbp), %rcx
	movq	%rcx, -224(%rbp)
	movq	$2, -216(%rbp)
	movq	$7, -208(%rbp)
	movq	$8, -200(%rbp)
	movq	$13, -192(%rbp)
	movl	%edx, -2992(%rbp)
	movl	%eax, -2988(%rbp)
	movq	-216(%rbp), %rax
	leaq	0(,%rax,4), %rdx
	movq	-224(%rbp), %rax
	addq	%rdx, %rax
	movl	(%rax), %edx
	movq	-208(%rbp), %rax
	leaq	0(,%rax,4), %rcx
	movq	-224(%rbp), %rax
	addq	%rcx, %rax
	movl	(%rax), %eax
	leal	(%rdx,%rax), %ecx
	movq	-216(%rbp), %rax
	leaq	0(,%rax,4), %rdx
	movq	-224(%rbp), %rax
	addq	%rdx, %rax
	movl	-2992(%rbp), %edx
	addl	%ecx, %edx
	movl	%edx, (%rax)
	movq	-192(%rbp), %rax
	leaq	0(,%rax,4), %rdx
	movq	-224(%rbp), %rax
	addq	%rdx, %rax
	movl	(%rax), %edx
	movq	-216(%rbp), %rax
	leaq	0(,%rax,4), %rcx
	movq	-224(%rbp), %rax
	addq	%rcx, %rax
	movl	(%rax), %eax
	xorl	%edx, %eax
	movq	-192(%rbp), %rdx
	leaq	0(,%rdx,4), %rcx
	movq	-224(%rbp), %rdx
	addq	%rcx, %rdx
	movl	%eax, -2984(%rbp)
	movl	$16, -2980(%rbp)
	movl	-2980(%rbp), %eax
	movl	-2984(%rbp), %esi
	movl	%eax, %ecx
	rorl	%cl, %esi
	movl	%esi, %eax
	movl	%eax, (%rdx)
	movq	-200(%rbp), %rax
	leaq	0(,%rax,4), %rdx
	movq	-224(%rbp), %rax
	addq	%rdx, %rax
	movl	(%rax), %ecx
	movq	-192(%rbp), %rax
	leaq	0(,%rax,4), %rdx
	movq	-224(%rbp), %rax
	addq	%rdx, %rax
	movl	(%rax), %edx
	movq	-200(%rbp), %rax
	leaq	0(,%rax,4), %rsi
	movq	-224(%rbp), %rax
	addq	%rsi, %rax
	addl	%ecx, %edx
	movl	%edx, (%rax)
	movq	-208(%rbp), %rax
	leaq	0(,%rax,4), %rdx
	movq	-224(%rbp), %rax
	addq	%rdx, %rax
	movl	(%rax), %edx
	movq	-200(%rbp), %rax
	leaq	0(,%rax,4), %rcx
	movq	-224(%rbp), %rax
	addq	%rcx, %rax
	movl	(%rax), %eax
	xorl	%edx, %eax
	movq	-208(%rbp), %rdx
	leaq	0(,%rdx,4), %rcx
	movq	-224(%rbp), %rdx
	addq	%rcx, %rdx
	movl	%eax, -2976(%rbp)
	movl	$12, -2972(%rbp)
	movl	-2972(%rbp), %eax
	movl	-2976(%rbp), %esi
	movl	%eax, %ecx
	rorl	%cl, %esi
	movl	%esi, %eax
	movl	%eax, (%rdx)
	movq	-216(%rbp), %rax
	leaq	0(,%rax,4), %rdx
	movq	-224(%rbp), %rax
	addq	%rdx, %rax
	movl	(%rax), %edx
	movq	-208(%rbp), %rax
	leaq	0(,%rax,4), %rcx
	movq	-224(%rbp), %rax
	addq	%rcx, %rax
	movl	(%rax), %eax
	leal	(%rdx,%rax), %ecx
	movq	-216(%rbp), %rax
	leaq	0(,%rax,4), %rdx
	movq	-224(%rbp), %rax
	addq	%rdx, %rax
	movl	-2988(%rbp), %edx
	addl	%ecx, %edx
	movl	%edx, (%rax)
	movq	-192(%rbp), %rax
	leaq	0(,%rax,4), %rdx
	movq	-224(%rbp), %rax
	addq	%rdx, %rax
	movl	(%rax), %edx
	movq	-216(%rbp), %rax
	leaq	0(,%rax,4), %rcx
	movq	-224(%rbp), %rax
	addq	%rcx, %rax
	movl	(%rax), %eax
	xorl	%edx, %eax
	movq	-192(%rbp), %rdx
	leaq	0(,%rdx,4), %rcx
	movq	-224(%rbp), %rdx
	addq	%rcx, %rdx
	movl	%eax, -2968(%rbp)
	movl	$8, -2964(%rbp)
	movl	-2964(%rbp), %eax
	movl	-2968(%rbp), %esi
	movl	%eax, %ecx
	rorl	%cl, %esi
	movl	%esi, %eax
	movl	%eax, (%rdx)
	movq	-200(%rbp), %rax
	leaq	0(,%rax,4), %rdx
	movq	-224(%rbp), %rax
	addq	%rdx, %rax
	movl	(%rax), %ecx
	movq	-192(%rbp), %rax
	leaq	0(,%rax,4), %rdx
	movq	-224(%rbp), %rax
	addq	%rdx, %rax
	movl	(%rax), %edx
	movq	-200(%rbp), %rax
	leaq	0(,%rax,4), %rsi
	movq	-224(%rbp), %rax
	addq	%rsi, %rax
	addl	%ecx, %edx
	movl	%edx, (%rax)
	movq	-208(%rbp), %rax
	leaq	0(,%rax,4), %rdx
	movq	-224(%rbp), %rax
	addq	%rdx, %rax
	movl	(%rax), %edx
	movq	-200(%rbp), %rax
	leaq	0(,%rax,4), %rcx
	movq	-224(%rbp), %rax
	addq	%rcx, %rax
	movl	(%rax), %eax
	xorl	%edx, %eax
	movq	-208(%rbp), %rdx
	leaq	0(,%rdx,4), %rcx
	movq	-224(%rbp), %rdx
	addq	%rcx, %rdx
	movl	%eax, -2960(%rbp)
	movl	$7, -2956(%rbp)
	movl	-2956(%rbp), %eax
	movl	-2960(%rbp), %esi
	movl	%eax, %ecx
	rorl	%cl, %esi
	movl	%esi, %eax
	movl	%eax, (%rdx)
	nop
	movq	-472(%rbp), %rax
	addq	$15, %rax
	movzbl	(%rax), %eax
	movzbl	%al, %eax
	leaq	0(,%rax,4), %rdx
	movq	-488(%rbp), %rax
	addq	%rdx, %rax
	movl	(%rax), %eax
	movq	-472(%rbp), %rdx
	addq	$14, %rdx
	movzbl	(%rdx), %edx
	movzbl	%dl, %edx
	leaq	0(,%rdx,4), %rcx
	movq	-488(%rbp), %rdx
	addq	%rcx, %rdx
	movl	(%rdx), %edx
	movq	-496(%rbp), %rcx
	movq	%rcx, -184(%rbp)
	movq	$3, -176(%rbp)
	movq	$4, -168(%rbp)
	movq	$9, -160(%rbp)
	movq	$14, -152(%rbp)
	movl	%edx, -2952(%rbp)
	movl	%eax, -2948(%rbp)
	movq	-176(%rbp), %rax
	leaq	0(,%rax,4), %rdx
	movq	-184(%rbp), %rax
	addq	%rdx, %rax
	movl	(%rax), %edx
	movq	-168(%rbp), %rax
	leaq	0(,%rax,4), %rcx
	movq	-184(%rbp), %rax
	addq	%rcx, %rax
	movl	(%rax), %eax
	leal	(%rdx,%rax), %ecx
	movq	-176(%rbp), %rax
	leaq	0(,%rax,4), %rdx
	movq	-184(%rbp), %rax
	addq	%rdx, %rax
	movl	-2952(%rbp), %edx
	addl	%ecx, %edx
	movl	%edx, (%rax)
	movq	-152(%rbp), %rax
	leaq	0(,%rax,4), %rdx
	movq	-184(%rbp), %rax
	addq	%rdx, %rax
	movl	(%rax), %edx
	movq	-176(%rbp), %rax
	leaq	0(,%rax,4), %rcx
	movq	-184(%rbp), %rax
	addq	%rcx, %rax
	movl	(%rax), %eax
	xorl	%edx, %eax
	movq	-152(%rbp), %rdx
	leaq	0(,%rdx,4), %rcx
	movq	-184(%rbp), %rdx
	addq	%rcx, %rdx
	movl	%eax, -2944(%rbp)
	movl	$16, -2940(%rbp)
	movl	-2940(%rbp), %eax
	movl	-2944(%rbp), %esi
	movl	%eax, %ecx
	rorl	%cl, %esi
	movl	%esi, %eax
	movl	%eax, (%rdx)
	movq	-160(%rbp), %rax
	leaq	0(,%rax,4), %rdx
	movq	-184(%rbp), %rax
	addq	%rdx, %rax
	movl	(%rax), %ecx
	movq	-152(%rbp), %rax
	leaq	0(,%rax,4), %rdx
	movq	-184(%rbp), %rax
	addq	%rdx, %rax
	movl	(%rax), %edx
	movq	-160(%rbp), %rax
	leaq	0(,%rax,4), %rsi
	movq	-184(%rbp), %rax
	addq	%rsi, %rax
	addl	%ecx, %edx
	movl	%edx, (%rax)
	movq	-168(%rbp), %rax
	leaq	0(,%rax,4), %rdx
	movq	-184(%rbp), %rax
	addq	%rdx, %rax
	movl	(%rax), %edx
	movq	-160(%rbp), %rax
	leaq	0(,%rax,4), %rcx
	movq	-184(%rbp), %rax
	addq	%rcx, %rax
	movl	(%rax), %eax
	xorl	%edx, %eax
	movq	-168(%rbp), %rdx
	leaq	0(,%rdx,4), %rcx
	movq	-184(%rbp), %rdx
	addq	%rcx, %rdx
	movl	%eax, -2936(%rbp)
	movl	$12, -2932(%rbp)
	movl	-2932(%rbp), %eax
	movl	-2936(%rbp), %esi
	movl	%eax, %ecx
	rorl	%cl, %esi
	movl	%esi, %eax
	movl	%eax, (%rdx)
	movq	-176(%rbp), %rax
	leaq	0(,%rax,4), %rdx
	movq	-184(%rbp), %rax
	addq	%rdx, %rax
	movl	(%rax), %edx
	movq	-168(%rbp), %rax
	leaq	0(,%rax,4), %rcx
	movq	-184(%rbp), %rax
	addq	%rcx, %rax
	movl	(%rax), %eax
	leal	(%rdx,%rax), %ecx
	movq	-176(%rbp), %rax
	leaq	0(,%rax,4), %rdx
	movq	-184(%rbp), %rax
	addq	%rdx, %rax
	movl	-2948(%rbp), %edx
	addl	%ecx, %edx
	movl	%edx, (%rax)
	movq	-152(%rbp), %rax
	leaq	0(,%rax,4), %rdx
	movq	-184(%rbp), %rax
	addq	%rdx, %rax
	movl	(%rax), %edx
	movq	-176(%rbp), %rax
	leaq	0(,%rax,4), %rcx
	movq	-184(%rbp), %rax
	addq	%rcx, %rax
	movl	(%rax), %eax
	xorl	%edx, %eax
	movq	-152(%rbp), %rdx
	leaq	0(,%rdx,4), %rcx
	movq	-184(%rbp), %rdx
	addq	%rcx, %rdx
	movl	%eax, -2928(%rbp)
	movl	$8, -2924(%rbp)
	movl	-2924(%rbp), %eax
	movl	-2928(%rbp), %esi
	movl	%eax, %ecx
	rorl	%cl, %esi
	movl	%esi, %eax
	movl	%eax, (%rdx)
	movq	-160(%rbp), %rax
	leaq	0(,%rax,4), %rdx
	movq	-184(%rbp), %rax
	addq	%rdx, %rax
	movl	(%rax), %ecx
	movq	-152(%rbp), %rax
	leaq	0(,%rax,4), %rdx
	movq	-184(%rbp), %rax
	addq	%rdx, %rax
	movl	(%rax), %edx
	movq	-160(%rbp), %rax
	leaq	0(,%rax,4), %rsi
	movq	-184(%rbp), %rax
	addq	%rsi, %rax
	addl	%ecx, %edx
	movl	%edx, (%rax)
	movq	-168(%rbp), %rax
	leaq	0(,%rax,4), %rdx
	movq	-184(%rbp), %rax
	addq	%rdx, %rax
	movl	(%rax), %edx
	movq	-160(%rbp), %rax
	leaq	0(,%rax,4), %rcx
	movq	-184(%rbp), %rax
	addq	%rcx, %rax
	movl	(%rax), %eax
	xorl	%edx, %eax
	movq	-168(%rbp), %rdx
	leaq	0(,%rdx,4), %rcx
	movq	-184(%rbp), %rdx
	addq	%rcx, %rdx
	movl	%eax, -2920(%rbp)
	movl	$7, -2916(%rbp)
	movl	-2916(%rbp), %eax
	movl	-2920(%rbp), %esi
	movl	%eax, %ecx
	rorl	%cl, %esi
	movl	%esi, %eax
	movl	%eax, (%rdx)
	nop
	nop
	nop
	movl	-144(%rbp), %edx
	movl	-112(%rbp), %eax
	xorl	%eax, %edx
	movq	-5176(%rbp), %rax
	movl	%edx, (%rax)
	movl	-140(%rbp), %ecx
	movl	-108(%rbp), %edx
	movq	-5176(%rbp), %rax
	addq	$4, %rax
	xorl	%ecx, %edx
	movl	%edx, (%rax)
	movl	-136(%rbp), %ecx
	movl	-104(%rbp), %edx
	movq	-5176(%rbp), %rax
	addq	$8, %rax
	xorl	%ecx, %edx
	movl	%edx, (%rax)
	movl	-132(%rbp), %ecx
	movl	-100(%rbp), %edx
	movq	-5176(%rbp), %rax
	addq	$12, %rax
	xorl	%ecx, %edx
	movl	%edx, (%rax)
	movl	-128(%rbp), %ecx
	movl	-96(%rbp), %edx
	movq	-5176(%rbp), %rax
	addq	$16, %rax
	xorl	%ecx, %edx
	movl	%edx, (%rax)
	movl	-124(%rbp), %ecx
	movl	-92(%rbp), %edx
	movq	-5176(%rbp), %rax
	addq	$20, %rax
	xorl	%ecx, %edx
	movl	%edx, (%rax)
	movl	-120(%rbp), %ecx
	movl	-88(%rbp), %edx
	movq	-5176(%rbp), %rax
	addq	$24, %rax
	xorl	%ecx, %edx
	movl	%edx, (%rax)
	movl	-116(%rbp), %ecx
	movl	-84(%rbp), %edx
	movq	-5176(%rbp), %rax
	addq	$28, %rax
	xorl	%ecx, %edx
	movl	%edx, (%rax)
	nop
	movq	-8(%rbp), %rax
	subq	%fs:40, %rax
	je	.L246
	call	__stack_chk_fail@PLT
.L246:
	leave
	.cfi_def_cfa 7, 8
	ret
	.cfi_endproc
.LFE13:
	.size	blake3_compress_in_place_portable, .-blake3_compress_in_place_portable
	.globl	blake3_compress_xof_portable
	.type	blake3_compress_xof_portable, @function
blake3_compress_xof_portable:
.LFB14:
	.cfi_startproc
	endbr64
	pushq	%rbp
	.cfi_def_cfa_offset 16
	.cfi_offset 6, -16
	movq	%rsp, %rbp
	.cfi_def_cfa_register 6
	subq	$4096, %rsp
	orq	$0, (%rsp)
	subq	$1440, %rsp
	movq	%rdi, -5496(%rbp)
	movq	%rsi, -5504(%rbp)
	movl	%edx, %eax
	movq	%rcx, -5520(%rbp)
	movl	%r8d, %edx
	movq	%r9, -5528(%rbp)
	movb	%al, -5508(%rbp)
	movl	%edx, %eax
	movb	%al, -5512(%rbp)
	movq	%fs:40, %rax
	movq	%rax, -8(%rbp)
	xorl	%eax, %eax
	movzbl	-5512(%rbp), %eax
	movzbl	-5508(%rbp), %edx
	leaq	-144(%rbp), %rcx
	movq	%rcx, -2912(%rbp)
	movq	-5496(%rbp), %rcx
	movq	%rcx, -2904(%rbp)
	movq	-5504(%rbp), %rcx
	movq	%rcx, -2896(%rbp)
	movb	%dl, -5474(%rbp)
	movq	-5520(%rbp), %rdx
	movq	%rdx, -2888(%rbp)
	movb	%al, -5473(%rbp)
	movq	-2896(%rbp), %rax
	movq	%rax, -2880(%rbp)
	movq	-2880(%rbp), %rax
	movq	%rax, -2872(%rbp)
	movq	-2872(%rbp), %rax
	movzbl	(%rax), %eax
	movzbl	%al, %edx
	movq	-2872(%rbp), %rax
	addq	$1, %rax
	movzbl	(%rax), %eax
	movzbl	%al, %eax
	sall	$8, %eax
	orl	%eax, %edx
	movq	-2872(%rbp), %rax
	addq	$2, %rax
	movzbl	(%rax), %eax
	movzbl	%al, %eax
	sall	$16, %eax
	orl	%eax, %edx
	movq	-2872(%rbp), %rax
	addq	$3, %rax
	movzbl	(%rax), %eax
	movzbl	%al, %eax
	sall	$24, %eax
	orl	%edx, %eax
	movl	%eax, -80(%rbp)
	movq	-2896(%rbp), %rax
	addq	$4, %rax
	movq	%rax, -2864(%rbp)
	movq	-2864(%rbp), %rax
	movq	%rax, -2856(%rbp)
	movq	-2856(%rbp), %rax
	movzbl	(%rax), %eax
	movzbl	%al, %edx
	movq	-2856(%rbp), %rax
	addq	$1, %rax
	movzbl	(%rax), %eax
	movzbl	%al, %eax
	sall	$8, %eax
	orl	%eax, %edx
	movq	-2856(%rbp), %rax
	addq	$2, %rax
	movzbl	(%rax), %eax
	movzbl	%al, %eax
	sall	$16, %eax
	orl	%eax, %edx
	movq	-2856(%rbp), %rax
	addq	$3, %rax
	movzbl	(%rax), %eax
	movzbl	%al, %eax
	sall	$24, %eax
	orl	%edx, %eax
	movl	%eax, -76(%rbp)
	movq	-2896(%rbp), %rax
	addq	$8, %rax
	movq	%rax, -2848(%rbp)
	movq	-2848(%rbp), %rax
	movq	%rax, -2840(%rbp)
	movq	-2840(%rbp), %rax
	movzbl	(%rax), %eax
	movzbl	%al, %edx
	movq	-2840(%rbp), %rax
	addq	$1, %rax
	movzbl	(%rax), %eax
	movzbl	%al, %eax
	sall	$8, %eax
	orl	%eax, %edx
	movq	-2840(%rbp), %rax
	addq	$2, %rax
	movzbl	(%rax), %eax
	movzbl	%al, %eax
	sall	$16, %eax
	orl	%eax, %edx
	movq	-2840(%rbp), %rax
	addq	$3, %rax
	movzbl	(%rax), %eax
	movzbl	%al, %eax
	sall	$24, %eax
	orl	%edx, %eax
	movl	%eax, -72(%rbp)
	movq	-2896(%rbp), %rax
	addq	$12, %rax
	movq	%rax, -2832(%rbp)
	movq	-2832(%rbp), %rax
	movq	%rax, -2824(%rbp)
	movq	-2824(%rbp), %rax
	movzbl	(%rax), %eax
	movzbl	%al, %edx
	movq	-2824(%rbp), %rax
	addq	$1, %rax
	movzbl	(%rax), %eax
	movzbl	%al, %eax
	sall	$8, %eax
	orl	%eax, %edx
	movq	-2824(%rbp), %rax
	addq	$2, %rax
	movzbl	(%rax), %eax
	movzbl	%al, %eax
	sall	$16, %eax
	orl	%eax, %edx
	movq	-2824(%rbp), %rax
	addq	$3, %rax
	movzbl	(%rax), %eax
	movzbl	%al, %eax
	sall	$24, %eax
	orl	%edx, %eax
	movl	%eax, -68(%rbp)
	movq	-2896(%rbp), %rax
	addq	$16, %rax
	movq	%rax, -2816(%rbp)
	movq	-2816(%rbp), %rax
	movq	%rax, -2808(%rbp)
	movq	-2808(%rbp), %rax
	movzbl	(%rax), %eax
	movzbl	%al, %edx
	movq	-2808(%rbp), %rax
	addq	$1, %rax
	movzbl	(%rax), %eax
	movzbl	%al, %eax
	sall	$8, %eax
	orl	%eax, %edx
	movq	-2808(%rbp), %rax
	addq	$2, %rax
	movzbl	(%rax), %eax
	movzbl	%al, %eax
	sall	$16, %eax
	orl	%eax, %edx
	movq	-2808(%rbp), %rax
	addq	$3, %rax
	movzbl	(%rax), %eax
	movzbl	%al, %eax
	sall	$24, %eax
	orl	%edx, %eax
	movl	%eax, -64(%rbp)
	movq	-2896(%rbp), %rax
	addq	$20, %rax
	movq	%rax, -2800(%rbp)
	movq	-2800(%rbp), %rax
	movq	%rax, -2792(%rbp)
	movq	-2792(%rbp), %rax
	movzbl	(%rax), %eax
	movzbl	%al, %edx
	movq	-2792(%rbp), %rax
	addq	$1, %rax
	movzbl	(%rax), %eax
	movzbl	%al, %eax
	sall	$8, %eax
	orl	%eax, %edx
	movq	-2792(%rbp), %rax
	addq	$2, %rax
	movzbl	(%rax), %eax
	movzbl	%al, %eax
	sall	$16, %eax
	orl	%eax, %edx
	movq	-2792(%rbp), %rax
	addq	$3, %rax
	movzbl	(%rax), %eax
	movzbl	%al, %eax
	sall	$24, %eax
	orl	%edx, %eax
	movl	%eax, -60(%rbp)
	movq	-2896(%rbp), %rax
	addq	$24, %rax
	movq	%rax, -2784(%rbp)
	movq	-2784(%rbp), %rax
	movq	%rax, -2776(%rbp)
	movq	-2776(%rbp), %rax
	movzbl	(%rax), %eax
	movzbl	%al, %edx
	movq	-2776(%rbp), %rax
	addq	$1, %rax
	movzbl	(%rax), %eax
	movzbl	%al, %eax
	sall	$8, %eax
	orl	%eax, %edx
	movq	-2776(%rbp), %rax
	addq	$2, %rax
	movzbl	(%rax), %eax
	movzbl	%al, %eax
	sall	$16, %eax
	orl	%eax, %edx
	movq	-2776(%rbp), %rax
	addq	$3, %rax
	movzbl	(%rax), %eax
	movzbl	%al, %eax
	sall	$24, %eax
	orl	%edx, %eax
	movl	%eax, -56(%rbp)
	movq	-2896(%rbp), %rax
	addq	$28, %rax
	movq	%rax, -2768(%rbp)
	movq	-2768(%rbp), %rax
	movq	%rax, -2760(%rbp)
	movq	-2760(%rbp), %rax
	movzbl	(%rax), %eax
	movzbl	%al, %edx
	movq	-2760(%rbp), %rax
	addq	$1, %rax
	movzbl	(%rax), %eax
	movzbl	%al, %eax
	sall	$8, %eax
	orl	%eax, %edx
	movq	-2760(%rbp), %rax
	addq	$2, %rax
	movzbl	(%rax), %eax
	movzbl	%al, %eax
	sall	$16, %eax
	orl	%eax, %edx
	movq	-2760(%rbp), %rax
	addq	$3, %rax
	movzbl	(%rax), %eax
	movzbl	%al, %eax
	sall	$24, %eax
	orl	%edx, %eax
	movl	%eax, -52(%rbp)
	movq	-2896(%rbp), %rax
	addq	$32, %rax
	movq	%rax, -2752(%rbp)
	movq	-2752(%rbp), %rax
	movq	%rax, -2744(%rbp)
	movq	-2744(%rbp), %rax
	movzbl	(%rax), %eax
	movzbl	%al, %edx
	movq	-2744(%rbp), %rax
	addq	$1, %rax
	movzbl	(%rax), %eax
	movzbl	%al, %eax
	sall	$8, %eax
	orl	%eax, %edx
	movq	-2744(%rbp), %rax
	addq	$2, %rax
	movzbl	(%rax), %eax
	movzbl	%al, %eax
	sall	$16, %eax
	orl	%eax, %edx
	movq	-2744(%rbp), %rax
	addq	$3, %rax
	movzbl	(%rax), %eax
	movzbl	%al, %eax
	sall	$24, %eax
	orl	%edx, %eax
	movl	%eax, -48(%rbp)
	movq	-2896(%rbp), %rax
	addq	$36, %rax
	movq	%rax, -2736(%rbp)
	movq	-2736(%rbp), %rax
	movq	%rax, -2728(%rbp)
	movq	-2728(%rbp), %rax
	movzbl	(%rax), %eax
	movzbl	%al, %edx
	movq	-2728(%rbp), %rax
	addq	$1, %rax
	movzbl	(%rax), %eax
	movzbl	%al, %eax
	sall	$8, %eax
	orl	%eax, %edx
	movq	-2728(%rbp), %rax
	addq	$2, %rax
	movzbl	(%rax), %eax
	movzbl	%al, %eax
	sall	$16, %eax
	orl	%eax, %edx
	movq	-2728(%rbp), %rax
	addq	$3, %rax
	movzbl	(%rax), %eax
	movzbl	%al, %eax
	sall	$24, %eax
	orl	%edx, %eax
	movl	%eax, -44(%rbp)
	movq	-2896(%rbp), %rax
	addq	$40, %rax
	movq	%rax, -2720(%rbp)
	movq	-2720(%rbp), %rax
	movq	%rax, -2712(%rbp)
	movq	-2712(%rbp), %rax
	movzbl	(%rax), %eax
	movzbl	%al, %edx
	movq	-2712(%rbp), %rax
	addq	$1, %rax
	movzbl	(%rax), %eax
	movzbl	%al, %eax
	sall	$8, %eax
	orl	%eax, %edx
	movq	-2712(%rbp), %rax
	addq	$2, %rax
	movzbl	(%rax), %eax
	movzbl	%al, %eax
	sall	$16, %eax
	orl	%eax, %edx
	movq	-2712(%rbp), %rax
	addq	$3, %rax
	movzbl	(%rax), %eax
	movzbl	%al, %eax
	sall	$24, %eax
	orl	%edx, %eax
	movl	%eax, -40(%rbp)
	movq	-2896(%rbp), %rax
	addq	$44, %rax
	movq	%rax, -2704(%rbp)
	movq	-2704(%rbp), %rax
	movq	%rax, -2696(%rbp)
	movq	-2696(%rbp), %rax
	movzbl	(%rax), %eax
	movzbl	%al, %edx
	movq	-2696(%rbp), %rax
	addq	$1, %rax
	movzbl	(%rax), %eax
	movzbl	%al, %eax
	sall	$8, %eax
	orl	%eax, %edx
	movq	-2696(%rbp), %rax
	addq	$2, %rax
	movzbl	(%rax), %eax
	movzbl	%al, %eax
	sall	$16, %eax
	orl	%eax, %edx
	movq	-2696(%rbp), %rax
	addq	$3, %rax
	movzbl	(%rax), %eax
	movzbl	%al, %eax
	sall	$24, %eax
	orl	%edx, %eax
	movl	%eax, -36(%rbp)
	movq	-2896(%rbp), %rax
	addq	$48, %rax
	movq	%rax, -2688(%rbp)
	movq	-2688(%rbp), %rax
	movq	%rax, -2680(%rbp)
	movq	-2680(%rbp), %rax
	movzbl	(%rax), %eax
	movzbl	%al, %edx
	movq	-2680(%rbp), %rax
	addq	$1, %rax
	movzbl	(%rax), %eax
	movzbl	%al, %eax
	sall	$8, %eax
	orl	%eax, %edx
	movq	-2680(%rbp), %rax
	addq	$2, %rax
	movzbl	(%rax), %eax
	movzbl	%al, %eax
	sall	$16, %eax
	orl	%eax, %edx
	movq	-2680(%rbp), %rax
	addq	$3, %rax
	movzbl	(%rax), %eax
	movzbl	%al, %eax
	sall	$24, %eax
	orl	%edx, %eax
	movl	%eax, -32(%rbp)
	movq	-2896(%rbp), %rax
	addq	$52, %rax
	movq	%rax, -2672(%rbp)
	movq	-2672(%rbp), %rax
	movq	%rax, -2664(%rbp)
	movq	-2664(%rbp), %rax
	movzbl	(%rax), %eax
	movzbl	%al, %edx
	movq	-2664(%rbp), %rax
	addq	$1, %rax
	movzbl	(%rax), %eax
	movzbl	%al, %eax
	sall	$8, %eax
	orl	%eax, %edx
	movq	-2664(%rbp), %rax
	addq	$2, %rax
	movzbl	(%rax), %eax
	movzbl	%al, %eax
	sall	$16, %eax
	orl	%eax, %edx
	movq	-2664(%rbp), %rax
	addq	$3, %rax
	movzbl	(%rax), %eax
	movzbl	%al, %eax
	sall	$24, %eax
	orl	%edx, %eax
	movl	%eax, -28(%rbp)
	movq	-2896(%rbp), %rax
	addq	$56, %rax
	movq	%rax, -2656(%rbp)
	movq	-2656(%rbp), %rax
	movq	%rax, -2648(%rbp)
	movq	-2648(%rbp), %rax
	movzbl	(%rax), %eax
	movzbl	%al, %edx
	movq	-2648(%rbp), %rax
	addq	$1, %rax
	movzbl	(%rax), %eax
	movzbl	%al, %eax
	sall	$8, %eax
	orl	%eax, %edx
	movq	-2648(%rbp), %rax
	addq	$2, %rax
	movzbl	(%rax), %eax
	movzbl	%al, %eax
	sall	$16, %eax
	orl	%eax, %edx
	movq	-2648(%rbp), %rax
	addq	$3, %rax
	movzbl	(%rax), %eax
	movzbl	%al, %eax
	sall	$24, %eax
	orl	%edx, %eax
	movl	%eax, -24(%rbp)
	movq	-2896(%rbp), %rax
	addq	$60, %rax
	movq	%rax, -2640(%rbp)
	movq	-2640(%rbp), %rax
	movq	%rax, -2632(%rbp)
	movq	-2632(%rbp), %rax
	movzbl	(%rax), %eax
	movzbl	%al, %edx
	movq	-2632(%rbp), %rax
	addq	$1, %rax
	movzbl	(%rax), %eax
	movzbl	%al, %eax
	sall	$8, %eax
	orl	%eax, %edx
	movq	-2632(%rbp), %rax
	addq	$2, %rax
	movzbl	(%rax), %eax
	movzbl	%al, %eax
	sall	$16, %eax
	orl	%eax, %edx
	movq	-2632(%rbp), %rax
	addq	$3, %rax
	movzbl	(%rax), %eax
	movzbl	%al, %eax
	sall	$24, %eax
	orl	%edx, %eax
	movl	%eax, -20(%rbp)
	movq	-2904(%rbp), %rax
	movl	(%rax), %edx
	movq	-2912(%rbp), %rax
	movl	%edx, (%rax)
	movq	-2904(%rbp), %rax
	addq	$4, %rax
	movq	-2912(%rbp), %rdx
	addq	$4, %rdx
	movl	(%rax), %eax
	movl	%eax, (%rdx)
	movq	-2904(%rbp), %rax
	addq	$8, %rax
	movq	-2912(%rbp), %rdx
	addq	$8, %rdx
	movl	(%rax), %eax
	movl	%eax, (%rdx)
	movq	-2904(%rbp), %rax
	addq	$12, %rax
	movq	-2912(%rbp), %rdx
	addq	$12, %rdx
	movl	(%rax), %eax
	movl	%eax, (%rdx)
	movq	-2904(%rbp), %rax
	addq	$16, %rax
	movq	-2912(%rbp), %rdx
	addq	$16, %rdx
	movl	(%rax), %eax
	movl	%eax, (%rdx)
	movq	-2904(%rbp), %rax
	addq	$20, %rax
	movq	-2912(%rbp), %rdx
	addq	$20, %rdx
	movl	(%rax), %eax
	movl	%eax, (%rdx)
	movq	-2904(%rbp), %rax
	addq	$24, %rax
	movq	-2912(%rbp), %rdx
	addq	$24, %rdx
	movl	(%rax), %eax
	movl	%eax, (%rdx)
	movq	-2904(%rbp), %rax
	addq	$28, %rax
	movq	-2912(%rbp), %rdx
	addq	$28, %rdx
	movl	(%rax), %eax
	movl	%eax, (%rdx)
	movq	-2912(%rbp), %rax
	addq	$32, %rax
	movl	$1779033703, %edx
	movl	%edx, (%rax)
	movq	-2912(%rbp), %rax
	addq	$36, %rax
	movl	$-1150833019, %edx
	movl	%edx, (%rax)
	movq	-2912(%rbp), %rax
	addq	$40, %rax
	movl	$1013904242, %edx
	movl	%edx, (%rax)
	movq	-2912(%rbp), %rax
	addq	$44, %rax
	movl	$-1521486534, %edx
	movl	%edx, (%rax)
	movq	-2912(%rbp), %rax
	leaq	48(%rax), %rdx
	movq	-2888(%rbp), %rax
	movq	%rax, -2624(%rbp)
	movq	-2624(%rbp), %rax
	movl	%eax, (%rdx)
	movq	-2912(%rbp), %rax
	leaq	52(%rax), %rdx
	movq	-2888(%rbp), %rax
	movq	%rax, -2616(%rbp)
	movq	-2616(%rbp), %rax
	shrq	$32, %rax
	movl	%eax, (%rdx)
	movq	-2912(%rbp), %rax
	leaq	56(%rax), %rdx
	movzbl	-5474(%rbp), %eax
	movl	%eax, (%rdx)
	movq	-2912(%rbp), %rax
	leaq	60(%rax), %rdx
	movzbl	-5473(%rbp), %eax
	movl	%eax, (%rdx)
	movq	-2912(%rbp), %rax
	movq	%rax, -2608(%rbp)
	leaq	-80(%rbp), %rax
	movq	%rax, -2600(%rbp)
	movq	$0, -2592(%rbp)
	movq	-2592(%rbp), %rax
	salq	$4, %rax
	movq	%rax, %rdx
	leaq	MSG_SCHEDULE(%rip), %rax
	addq	%rdx, %rax
	movq	%rax, -2584(%rbp)
	movq	-2584(%rbp), %rax
	addq	$1, %rax
	movzbl	(%rax), %eax
	movzbl	%al, %eax
	leaq	0(,%rax,4), %rdx
	movq	-2600(%rbp), %rax
	addq	%rdx, %rax
	movl	(%rax), %eax
	movq	-2584(%rbp), %rdx
	movzbl	(%rdx), %edx
	movzbl	%dl, %edx
	leaq	0(,%rdx,4), %rcx
	movq	-2600(%rbp), %rdx
	addq	%rcx, %rdx
	movl	(%rdx), %edx
	movq	-2608(%rbp), %rcx
	movq	%rcx, -2576(%rbp)
	movq	$0, -2568(%rbp)
	movq	$4, -2560(%rbp)
	movq	$8, -2552(%rbp)
	movq	$12, -2544(%rbp)
	movl	%edx, -5408(%rbp)
	movl	%eax, -5404(%rbp)
	movq	-2568(%rbp), %rax
	leaq	0(,%rax,4), %rdx
	movq	-2576(%rbp), %rax
	addq	%rdx, %rax
	movl	(%rax), %edx
	movq	-2560(%rbp), %rax
	leaq	0(,%rax,4), %rcx
	movq	-2576(%rbp), %rax
	addq	%rcx, %rax
	movl	(%rax), %eax
	leal	(%rdx,%rax), %ecx
	movq	-2568(%rbp), %rax
	leaq	0(,%rax,4), %rdx
	movq	-2576(%rbp), %rax
	addq	%rdx, %rax
	movl	-5408(%rbp), %edx
	addl	%ecx, %edx
	movl	%edx, (%rax)
	movq	-2544(%rbp), %rax
	leaq	0(,%rax,4), %rdx
	movq	-2576(%rbp), %rax
	addq	%rdx, %rax
	movl	(%rax), %edx
	movq	-2568(%rbp), %rax
	leaq	0(,%rax,4), %rcx
	movq	-2576(%rbp), %rax
	addq	%rcx, %rax
	movl	(%rax), %eax
	xorl	%edx, %eax
	movq	-2544(%rbp), %rdx
	leaq	0(,%rdx,4), %rcx
	movq	-2576(%rbp), %rdx
	addq	%rcx, %rdx
	movl	%eax, -5400(%rbp)
	movl	$16, -5396(%rbp)
	movl	-5396(%rbp), %eax
	movl	-5400(%rbp), %esi
	movl	%eax, %ecx
	rorl	%cl, %esi
	movl	%esi, %eax
	movl	%eax, (%rdx)
	movq	-2552(%rbp), %rax
	leaq	0(,%rax,4), %rdx
	movq	-2576(%rbp), %rax
	addq	%rdx, %rax
	movl	(%rax), %ecx
	movq	-2544(%rbp), %rax
	leaq	0(,%rax,4), %rdx
	movq	-2576(%rbp), %rax
	addq	%rdx, %rax
	movl	(%rax), %edx
	movq	-2552(%rbp), %rax
	leaq	0(,%rax,4), %rsi
	movq	-2576(%rbp), %rax
	addq	%rsi, %rax
	addl	%ecx, %edx
	movl	%edx, (%rax)
	movq	-2560(%rbp), %rax
	leaq	0(,%rax,4), %rdx
	movq	-2576(%rbp), %rax
	addq	%rdx, %rax
	movl	(%rax), %edx
	movq	-2552(%rbp), %rax
	leaq	0(,%rax,4), %rcx
	movq	-2576(%rbp), %rax
	addq	%rcx, %rax
	movl	(%rax), %eax
	xorl	%edx, %eax
	movq	-2560(%rbp), %rdx
	leaq	0(,%rdx,4), %rcx
	movq	-2576(%rbp), %rdx
	addq	%rcx, %rdx
	movl	%eax, -5392(%rbp)
	movl	$12, -5388(%rbp)
	movl	-5388(%rbp), %eax
	movl	-5392(%rbp), %esi
	movl	%eax, %ecx
	rorl	%cl, %esi
	movl	%esi, %eax
	movl	%eax, (%rdx)
	movq	-2568(%rbp), %rax
	leaq	0(,%rax,4), %rdx
	movq	-2576(%rbp), %rax
	addq	%rdx, %rax
	movl	(%rax), %edx
	movq	-2560(%rbp), %rax
	leaq	0(,%rax,4), %rcx
	movq	-2576(%rbp), %rax
	addq	%rcx, %rax
	movl	(%rax), %eax
	leal	(%rdx,%rax), %ecx
	movq	-2568(%rbp), %rax
	leaq	0(,%rax,4), %rdx
	movq	-2576(%rbp), %rax
	addq	%rdx, %rax
	movl	-5404(%rbp), %edx
	addl	%ecx, %edx
	movl	%edx, (%rax)
	movq	-2544(%rbp), %rax
	leaq	0(,%rax,4), %rdx
	movq	-2576(%rbp), %rax
	addq	%rdx, %rax
	movl	(%rax), %edx
	movq	-2568(%rbp), %rax
	leaq	0(,%rax,4), %rcx
	movq	-2576(%rbp), %rax
	addq	%rcx, %rax
	movl	(%rax), %eax
	xorl	%edx, %eax
	movq	-2544(%rbp), %rdx
	leaq	0(,%rdx,4), %rcx
	movq	-2576(%rbp), %rdx
	addq	%rcx, %rdx
	movl	%eax, -5384(%rbp)
	movl	$8, -5380(%rbp)
	movl	-5380(%rbp), %eax
	movl	-5384(%rbp), %esi
	movl	%eax, %ecx
	rorl	%cl, %esi
	movl	%esi, %eax
	movl	%eax, (%rdx)
	movq	-2552(%rbp), %rax
	leaq	0(,%rax,4), %rdx
	movq	-2576(%rbp), %rax
	addq	%rdx, %rax
	movl	(%rax), %ecx
	movq	-2544(%rbp), %rax
	leaq	0(,%rax,4), %rdx
	movq	-2576(%rbp), %rax
	addq	%rdx, %rax
	movl	(%rax), %edx
	movq	-2552(%rbp), %rax
	leaq	0(,%rax,4), %rsi
	movq	-2576(%rbp), %rax
	addq	%rsi, %rax
	addl	%ecx, %edx
	movl	%edx, (%rax)
	movq	-2560(%rbp), %rax
	leaq	0(,%rax,4), %rdx
	movq	-2576(%rbp), %rax
	addq	%rdx, %rax
	movl	(%rax), %edx
	movq	-2552(%rbp), %rax
	leaq	0(,%rax,4), %rcx
	movq	-2576(%rbp), %rax
	addq	%rcx, %rax
	movl	(%rax), %eax
	xorl	%edx, %eax
	movq	-2560(%rbp), %rdx
	leaq	0(,%rdx,4), %rcx
	movq	-2576(%rbp), %rdx
	addq	%rcx, %rdx
	movl	%eax, -5376(%rbp)
	movl	$7, -5372(%rbp)
	movl	-5372(%rbp), %eax
	movl	-5376(%rbp), %esi
	movl	%eax, %ecx
	rorl	%cl, %esi
	movl	%esi, %eax
	movl	%eax, (%rdx)
	nop
	movq	-2584(%rbp), %rax
	addq	$3, %rax
	movzbl	(%rax), %eax
	movzbl	%al, %eax
	leaq	0(,%rax,4), %rdx
	movq	-2600(%rbp), %rax
	addq	%rdx, %rax
	movl	(%rax), %eax
	movq	-2584(%rbp), %rdx
	addq	$2, %rdx
	movzbl	(%rdx), %edx
	movzbl	%dl, %edx
	leaq	0(,%rdx,4), %rcx
	movq	-2600(%rbp), %rdx
	addq	%rcx, %rdx
	movl	(%rdx), %edx
	movq	-2608(%rbp), %rcx
	movq	%rcx, -2536(%rbp)
	movq	$1, -2528(%rbp)
	movq	$5, -2520(%rbp)
	movq	$9, -2512(%rbp)
	movq	$13, -2504(%rbp)
	movl	%edx, -5368(%rbp)
	movl	%eax, -5364(%rbp)
	movq	-2528(%rbp), %rax
	leaq	0(,%rax,4), %rdx
	movq	-2536(%rbp), %rax
	addq	%rdx, %rax
	movl	(%rax), %edx
	movq	-2520(%rbp), %rax
	leaq	0(,%rax,4), %rcx
	movq	-2536(%rbp), %rax
	addq	%rcx, %rax
	movl	(%rax), %eax
	leal	(%rdx,%rax), %ecx
	movq	-2528(%rbp), %rax
	leaq	0(,%rax,4), %rdx
	movq	-2536(%rbp), %rax
	addq	%rdx, %rax
	movl	-5368(%rbp), %edx
	addl	%ecx, %edx
	movl	%edx, (%rax)
	movq	-2504(%rbp), %rax
	leaq	0(,%rax,4), %rdx
	movq	-2536(%rbp), %rax
	addq	%rdx, %rax
	movl	(%rax), %edx
	movq	-2528(%rbp), %rax
	leaq	0(,%rax,4), %rcx
	movq	-2536(%rbp), %rax
	addq	%rcx, %rax
	movl	(%rax), %eax
	xorl	%edx, %eax
	movq	-2504(%rbp), %rdx
	leaq	0(,%rdx,4), %rcx
	movq	-2536(%rbp), %rdx
	addq	%rcx, %rdx
	movl	%eax, -5360(%rbp)
	movl	$16, -5356(%rbp)
	movl	-5356(%rbp), %eax
	movl	-5360(%rbp), %esi
	movl	%eax, %ecx
	rorl	%cl, %esi
	movl	%esi, %eax
	movl	%eax, (%rdx)
	movq	-2512(%rbp), %rax
	leaq	0(,%rax,4), %rdx
	movq	-2536(%rbp), %rax
	addq	%rdx, %rax
	movl	(%rax), %ecx
	movq	-2504(%rbp), %rax
	leaq	0(,%rax,4), %rdx
	movq	-2536(%rbp), %rax
	addq	%rdx, %rax
	movl	(%rax), %edx
	movq	-2512(%rbp), %rax
	leaq	0(,%rax,4), %rsi
	movq	-2536(%rbp), %rax
	addq	%rsi, %rax
	addl	%ecx, %edx
	movl	%edx, (%rax)
	movq	-2520(%rbp), %rax
	leaq	0(,%rax,4), %rdx
	movq	-2536(%rbp), %rax
	addq	%rdx, %rax
	movl	(%rax), %edx
	movq	-2512(%rbp), %rax
	leaq	0(,%rax,4), %rcx
	movq	-2536(%rbp), %rax
	addq	%rcx, %rax
	movl	(%rax), %eax
	xorl	%edx, %eax
	movq	-2520(%rbp), %rdx
	leaq	0(,%rdx,4), %rcx
	movq	-2536(%rbp), %rdx
	addq	%rcx, %rdx
	movl	%eax, -5352(%rbp)
	movl	$12, -5348(%rbp)
	movl	-5348(%rbp), %eax
	movl	-5352(%rbp), %esi
	movl	%eax, %ecx
	rorl	%cl, %esi
	movl	%esi, %eax
	movl	%eax, (%rdx)
	movq	-2528(%rbp), %rax
	leaq	0(,%rax,4), %rdx
	movq	-2536(%rbp), %rax
	addq	%rdx, %rax
	movl	(%rax), %edx
	movq	-2520(%rbp), %rax
	leaq	0(,%rax,4), %rcx
	movq	-2536(%rbp), %rax
	addq	%rcx, %rax
	movl	(%rax), %eax
	leal	(%rdx,%rax), %ecx
	movq	-2528(%rbp), %rax
	leaq	0(,%rax,4), %rdx
	movq	-2536(%rbp), %rax
	addq	%rdx, %rax
	movl	-5364(%rbp), %edx
	addl	%ecx, %edx
	movl	%edx, (%rax)
	movq	-2504(%rbp), %rax
	leaq	0(,%rax,4), %rdx
	movq	-2536(%rbp), %rax
	addq	%rdx, %rax
	movl	(%rax), %edx
	movq	-2528(%rbp), %rax
	leaq	0(,%rax,4), %rcx
	movq	-2536(%rbp), %rax
	addq	%rcx, %rax
	movl	(%rax), %eax
	xorl	%edx, %eax
	movq	-2504(%rbp), %rdx
	leaq	0(,%rdx,4), %rcx
	movq	-2536(%rbp), %rdx
	addq	%rcx, %rdx
	movl	%eax, -5344(%rbp)
	movl	$8, -5340(%rbp)
	movl	-5340(%rbp), %eax
	movl	-5344(%rbp), %esi
	movl	%eax, %ecx
	rorl	%cl, %esi
	movl	%esi, %eax
	movl	%eax, (%rdx)
	movq	-2512(%rbp), %rax
	leaq	0(,%rax,4), %rdx
	movq	-2536(%rbp), %rax
	addq	%rdx, %rax
	movl	(%rax), %ecx
	movq	-2504(%rbp), %rax
